
kernel/kernel:     file format elf64-littleriscv


Disassembly of section .text:

0000000080000000 <_entry>:
    80000000:	0001a117          	auipc	sp,0x1a
    80000004:	26010113          	add	sp,sp,608 # 8001a260 <stack0>
    80000008:	6505                	lui	a0,0x1
    8000000a:	f14025f3          	csrr	a1,mhartid
    8000000e:	0585                	add	a1,a1,1
    80000010:	02b50533          	mul	a0,a0,a1
    80000014:	912a                	add	sp,sp,a0
    80000016:	361050ef          	jal	80005b76 <start>

000000008000001a <spin>:
    8000001a:	a001                	j	8000001a <spin>

000000008000001c <kfree>:
// which normally should have been returned by a
// call to kalloc().  (The exception is when
// initializing the allocator; see kinit above.)
void
kfree(void *pa)
{
    8000001c:	1101                	add	sp,sp,-32
    8000001e:	ec06                	sd	ra,24(sp)
    80000020:	e822                	sd	s0,16(sp)
    80000022:	e426                	sd	s1,8(sp)
    80000024:	e04a                	sd	s2,0(sp)
    80000026:	1000                	add	s0,sp,32
  struct run *r;

  if(((uint64)pa % PGSIZE) != 0 || (char*)pa < end || (uint64)pa >= PHYSTOP)
    80000028:	03451793          	sll	a5,a0,0x34
    8000002c:	ebb9                	bnez	a5,80000082 <kfree+0x66>
    8000002e:	84aa                	mv	s1,a0
    80000030:	00022797          	auipc	a5,0x22
    80000034:	33078793          	add	a5,a5,816 # 80022360 <end>
    80000038:	04f56563          	bltu	a0,a5,80000082 <kfree+0x66>
    8000003c:	47c5                	li	a5,17
    8000003e:	07ee                	sll	a5,a5,0x1b
    80000040:	04f57163          	bgeu	a0,a5,80000082 <kfree+0x66>
    panic("kfree");

  // Fill with junk to catch dangling refs.
  memset(pa, 1, PGSIZE);
    80000044:	6605                	lui	a2,0x1
    80000046:	4585                	li	a1,1
    80000048:	00000097          	auipc	ra,0x0
    8000004c:	17c080e7          	jalr	380(ra) # 800001c4 <memset>

  r = (struct run*)pa;

  acquire(&kmem.lock);
    80000050:	00009917          	auipc	s2,0x9
    80000054:	a8090913          	add	s2,s2,-1408 # 80008ad0 <kmem>
    80000058:	854a                	mv	a0,s2
    8000005a:	00006097          	auipc	ra,0x6
    8000005e:	5be080e7          	jalr	1470(ra) # 80006618 <acquire>
  r->next = kmem.freelist;
    80000062:	01893783          	ld	a5,24(s2)
    80000066:	e09c                	sd	a5,0(s1)
  kmem.freelist = r;
    80000068:	00993c23          	sd	s1,24(s2)
  release(&kmem.lock);
    8000006c:	854a                	mv	a0,s2
    8000006e:	00006097          	auipc	ra,0x6
    80000072:	65e080e7          	jalr	1630(ra) # 800066cc <release>
}
    80000076:	60e2                	ld	ra,24(sp)
    80000078:	6442                	ld	s0,16(sp)
    8000007a:	64a2                	ld	s1,8(sp)
    8000007c:	6902                	ld	s2,0(sp)
    8000007e:	6105                	add	sp,sp,32
    80000080:	8082                	ret
    panic("kfree");
    80000082:	00008517          	auipc	a0,0x8
    80000086:	f8e50513          	add	a0,a0,-114 # 80008010 <etext+0x10>
    8000008a:	00006097          	auipc	ra,0x6
    8000008e:	056080e7          	jalr	86(ra) # 800060e0 <panic>

0000000080000092 <freerange>:
{
    80000092:	7179                	add	sp,sp,-48
    80000094:	f406                	sd	ra,40(sp)
    80000096:	f022                	sd	s0,32(sp)
    80000098:	ec26                	sd	s1,24(sp)
    8000009a:	e84a                	sd	s2,16(sp)
    8000009c:	e44e                	sd	s3,8(sp)
    8000009e:	e052                	sd	s4,0(sp)
    800000a0:	1800                	add	s0,sp,48
  p = (char*)PGROUNDUP((uint64)pa_start);
    800000a2:	6785                	lui	a5,0x1
    800000a4:	fff78713          	add	a4,a5,-1 # fff <_entry-0x7ffff001>
    800000a8:	00e504b3          	add	s1,a0,a4
    800000ac:	777d                	lui	a4,0xfffff
    800000ae:	8cf9                	and	s1,s1,a4
  for(; p + PGSIZE <= (char*)pa_end; p += PGSIZE)
    800000b0:	94be                	add	s1,s1,a5
    800000b2:	0095ee63          	bltu	a1,s1,800000ce <freerange+0x3c>
    800000b6:	892e                	mv	s2,a1
    kfree(p);
    800000b8:	7a7d                	lui	s4,0xfffff
  for(; p + PGSIZE <= (char*)pa_end; p += PGSIZE)
    800000ba:	6985                	lui	s3,0x1
    kfree(p);
    800000bc:	01448533          	add	a0,s1,s4
    800000c0:	00000097          	auipc	ra,0x0
    800000c4:	f5c080e7          	jalr	-164(ra) # 8000001c <kfree>
  for(; p + PGSIZE <= (char*)pa_end; p += PGSIZE)
    800000c8:	94ce                	add	s1,s1,s3
    800000ca:	fe9979e3          	bgeu	s2,s1,800000bc <freerange+0x2a>
}
    800000ce:	70a2                	ld	ra,40(sp)
    800000d0:	7402                	ld	s0,32(sp)
    800000d2:	64e2                	ld	s1,24(sp)
    800000d4:	6942                	ld	s2,16(sp)
    800000d6:	69a2                	ld	s3,8(sp)
    800000d8:	6a02                	ld	s4,0(sp)
    800000da:	6145                	add	sp,sp,48
    800000dc:	8082                	ret

00000000800000de <kinit>:
{
    800000de:	1141                	add	sp,sp,-16
    800000e0:	e406                	sd	ra,8(sp)
    800000e2:	e022                	sd	s0,0(sp)
    800000e4:	0800                	add	s0,sp,16
  initlock(&kmem.lock, "kmem");
    800000e6:	00008597          	auipc	a1,0x8
    800000ea:	f3258593          	add	a1,a1,-206 # 80008018 <etext+0x18>
    800000ee:	00009517          	auipc	a0,0x9
    800000f2:	9e250513          	add	a0,a0,-1566 # 80008ad0 <kmem>
    800000f6:	00006097          	auipc	ra,0x6
    800000fa:	492080e7          	jalr	1170(ra) # 80006588 <initlock>
  freerange(end, (void*)PHYSTOP);
    800000fe:	45c5                	li	a1,17
    80000100:	05ee                	sll	a1,a1,0x1b
    80000102:	00022517          	auipc	a0,0x22
    80000106:	25e50513          	add	a0,a0,606 # 80022360 <end>
    8000010a:	00000097          	auipc	ra,0x0
    8000010e:	f88080e7          	jalr	-120(ra) # 80000092 <freerange>
}
    80000112:	60a2                	ld	ra,8(sp)
    80000114:	6402                	ld	s0,0(sp)
    80000116:	0141                	add	sp,sp,16
    80000118:	8082                	ret

000000008000011a <kfreesize>:

// Returns the number of bytes of free memory
uint64
kfreesize(void)
{
    8000011a:	1101                	add	sp,sp,-32
    8000011c:	ec06                	sd	ra,24(sp)
    8000011e:	e822                	sd	s0,16(sp)
    80000120:	e426                	sd	s1,8(sp)
    80000122:	1000                	add	s0,sp,32
  struct run *r;
  uint64 freemem = 0;

  acquire(&kmem.lock);
    80000124:	00009497          	auipc	s1,0x9
    80000128:	9ac48493          	add	s1,s1,-1620 # 80008ad0 <kmem>
    8000012c:	8526                	mv	a0,s1
    8000012e:	00006097          	auipc	ra,0x6
    80000132:	4ea080e7          	jalr	1258(ra) # 80006618 <acquire>
  r = kmem.freelist;
    80000136:	6c9c                	ld	a5,24(s1)
  while (r) {
    80000138:	c785                	beqz	a5,80000160 <kfreesize+0x46>
  uint64 freemem = 0;
    8000013a:	4481                	li	s1,0
    freemem += PGSIZE;
    8000013c:	6705                	lui	a4,0x1
    8000013e:	94ba                	add	s1,s1,a4
    r = r->next;
    80000140:	639c                	ld	a5,0(a5)
  while (r) {
    80000142:	fff5                	bnez	a5,8000013e <kfreesize+0x24>
  }
  release(&kmem.lock);
    80000144:	00009517          	auipc	a0,0x9
    80000148:	98c50513          	add	a0,a0,-1652 # 80008ad0 <kmem>
    8000014c:	00006097          	auipc	ra,0x6
    80000150:	580080e7          	jalr	1408(ra) # 800066cc <release>

  return freemem;
}
    80000154:	8526                	mv	a0,s1
    80000156:	60e2                	ld	ra,24(sp)
    80000158:	6442                	ld	s0,16(sp)
    8000015a:	64a2                	ld	s1,8(sp)
    8000015c:	6105                	add	sp,sp,32
    8000015e:	8082                	ret
  uint64 freemem = 0;
    80000160:	4481                	li	s1,0
    80000162:	b7cd                	j	80000144 <kfreesize+0x2a>

0000000080000164 <kalloc>:
// Allocate one 4096-byte page of physical memory.
// Returns a pointer that the kernel can use.
// Returns 0 if the memory cannot be allocated.
void *
kalloc(void)
{
    80000164:	1101                	add	sp,sp,-32
    80000166:	ec06                	sd	ra,24(sp)
    80000168:	e822                	sd	s0,16(sp)
    8000016a:	e426                	sd	s1,8(sp)
    8000016c:	1000                	add	s0,sp,32
  struct run *r;

  acquire(&kmem.lock);
    8000016e:	00009497          	auipc	s1,0x9
    80000172:	96248493          	add	s1,s1,-1694 # 80008ad0 <kmem>
    80000176:	8526                	mv	a0,s1
    80000178:	00006097          	auipc	ra,0x6
    8000017c:	4a0080e7          	jalr	1184(ra) # 80006618 <acquire>
  r = kmem.freelist;
    80000180:	6c84                	ld	s1,24(s1)
  if(r)
    80000182:	c885                	beqz	s1,800001b2 <kalloc+0x4e>
    kmem.freelist = r->next;
    80000184:	609c                	ld	a5,0(s1)
    80000186:	00009517          	auipc	a0,0x9
    8000018a:	94a50513          	add	a0,a0,-1718 # 80008ad0 <kmem>
    8000018e:	ed1c                	sd	a5,24(a0)
  release(&kmem.lock);
    80000190:	00006097          	auipc	ra,0x6
    80000194:	53c080e7          	jalr	1340(ra) # 800066cc <release>

  if(r)
    memset((char*)r, 5, PGSIZE); // fill with junk
    80000198:	6605                	lui	a2,0x1
    8000019a:	4595                	li	a1,5
    8000019c:	8526                	mv	a0,s1
    8000019e:	00000097          	auipc	ra,0x0
    800001a2:	026080e7          	jalr	38(ra) # 800001c4 <memset>
  return (void*)r;
}
    800001a6:	8526                	mv	a0,s1
    800001a8:	60e2                	ld	ra,24(sp)
    800001aa:	6442                	ld	s0,16(sp)
    800001ac:	64a2                	ld	s1,8(sp)
    800001ae:	6105                	add	sp,sp,32
    800001b0:	8082                	ret
  release(&kmem.lock);
    800001b2:	00009517          	auipc	a0,0x9
    800001b6:	91e50513          	add	a0,a0,-1762 # 80008ad0 <kmem>
    800001ba:	00006097          	auipc	ra,0x6
    800001be:	512080e7          	jalr	1298(ra) # 800066cc <release>
  if(r)
    800001c2:	b7d5                	j	800001a6 <kalloc+0x42>

00000000800001c4 <memset>:
#include "types.h"

void*
memset(void *dst, int c, uint n)
{
    800001c4:	1141                	add	sp,sp,-16
    800001c6:	e422                	sd	s0,8(sp)
    800001c8:	0800                	add	s0,sp,16
  char *cdst = (char *) dst;
  int i;
  for(i = 0; i < n; i++){
    800001ca:	ca19                	beqz	a2,800001e0 <memset+0x1c>
    800001cc:	87aa                	mv	a5,a0
    800001ce:	1602                	sll	a2,a2,0x20
    800001d0:	9201                	srl	a2,a2,0x20
    800001d2:	00a60733          	add	a4,a2,a0
    cdst[i] = c;
    800001d6:	00b78023          	sb	a1,0(a5)
  for(i = 0; i < n; i++){
    800001da:	0785                	add	a5,a5,1
    800001dc:	fee79de3          	bne	a5,a4,800001d6 <memset+0x12>
  }
  return dst;
}
    800001e0:	6422                	ld	s0,8(sp)
    800001e2:	0141                	add	sp,sp,16
    800001e4:	8082                	ret

00000000800001e6 <memcmp>:

int
memcmp(const void *v1, const void *v2, uint n)
{
    800001e6:	1141                	add	sp,sp,-16
    800001e8:	e422                	sd	s0,8(sp)
    800001ea:	0800                	add	s0,sp,16
  const uchar *s1, *s2;

  s1 = v1;
  s2 = v2;
  while(n-- > 0){
    800001ec:	ca05                	beqz	a2,8000021c <memcmp+0x36>
    800001ee:	fff6069b          	addw	a3,a2,-1 # fff <_entry-0x7ffff001>
    800001f2:	1682                	sll	a3,a3,0x20
    800001f4:	9281                	srl	a3,a3,0x20
    800001f6:	0685                	add	a3,a3,1
    800001f8:	96aa                	add	a3,a3,a0
    if(*s1 != *s2)
    800001fa:	00054783          	lbu	a5,0(a0)
    800001fe:	0005c703          	lbu	a4,0(a1)
    80000202:	00e79863          	bne	a5,a4,80000212 <memcmp+0x2c>
      return *s1 - *s2;
    s1++, s2++;
    80000206:	0505                	add	a0,a0,1
    80000208:	0585                	add	a1,a1,1
  while(n-- > 0){
    8000020a:	fed518e3          	bne	a0,a3,800001fa <memcmp+0x14>
  }

  return 0;
    8000020e:	4501                	li	a0,0
    80000210:	a019                	j	80000216 <memcmp+0x30>
      return *s1 - *s2;
    80000212:	40e7853b          	subw	a0,a5,a4
}
    80000216:	6422                	ld	s0,8(sp)
    80000218:	0141                	add	sp,sp,16
    8000021a:	8082                	ret
  return 0;
    8000021c:	4501                	li	a0,0
    8000021e:	bfe5                	j	80000216 <memcmp+0x30>

0000000080000220 <memmove>:

void*
memmove(void *dst, const void *src, uint n)
{
    80000220:	1141                	add	sp,sp,-16
    80000222:	e422                	sd	s0,8(sp)
    80000224:	0800                	add	s0,sp,16
  const char *s;
  char *d;

  if(n == 0)
    80000226:	c205                	beqz	a2,80000246 <memmove+0x26>
    return dst;
  
  s = src;
  d = dst;
  if(s < d && s + n > d){
    80000228:	02a5e263          	bltu	a1,a0,8000024c <memmove+0x2c>
    s += n;
    d += n;
    while(n-- > 0)
      *--d = *--s;
  } else
    while(n-- > 0)
    8000022c:	1602                	sll	a2,a2,0x20
    8000022e:	9201                	srl	a2,a2,0x20
    80000230:	00c587b3          	add	a5,a1,a2
{
    80000234:	872a                	mv	a4,a0
      *d++ = *s++;
    80000236:	0585                	add	a1,a1,1
    80000238:	0705                	add	a4,a4,1 # 1001 <_entry-0x7fffefff>
    8000023a:	fff5c683          	lbu	a3,-1(a1)
    8000023e:	fed70fa3          	sb	a3,-1(a4)
    while(n-- > 0)
    80000242:	fef59ae3          	bne	a1,a5,80000236 <memmove+0x16>

  return dst;
}
    80000246:	6422                	ld	s0,8(sp)
    80000248:	0141                	add	sp,sp,16
    8000024a:	8082                	ret
  if(s < d && s + n > d){
    8000024c:	02061693          	sll	a3,a2,0x20
    80000250:	9281                	srl	a3,a3,0x20
    80000252:	00d58733          	add	a4,a1,a3
    80000256:	fce57be3          	bgeu	a0,a4,8000022c <memmove+0xc>
    d += n;
    8000025a:	96aa                	add	a3,a3,a0
    while(n-- > 0)
    8000025c:	fff6079b          	addw	a5,a2,-1
    80000260:	1782                	sll	a5,a5,0x20
    80000262:	9381                	srl	a5,a5,0x20
    80000264:	fff7c793          	not	a5,a5
    80000268:	97ba                	add	a5,a5,a4
      *--d = *--s;
    8000026a:	177d                	add	a4,a4,-1
    8000026c:	16fd                	add	a3,a3,-1
    8000026e:	00074603          	lbu	a2,0(a4)
    80000272:	00c68023          	sb	a2,0(a3)
    while(n-- > 0)
    80000276:	fee79ae3          	bne	a5,a4,8000026a <memmove+0x4a>
    8000027a:	b7f1                	j	80000246 <memmove+0x26>

000000008000027c <memcpy>:

// memcpy exists to placate GCC.  Use memmove.
void*
memcpy(void *dst, const void *src, uint n)
{
    8000027c:	1141                	add	sp,sp,-16
    8000027e:	e406                	sd	ra,8(sp)
    80000280:	e022                	sd	s0,0(sp)
    80000282:	0800                	add	s0,sp,16
  return memmove(dst, src, n);
    80000284:	00000097          	auipc	ra,0x0
    80000288:	f9c080e7          	jalr	-100(ra) # 80000220 <memmove>
}
    8000028c:	60a2                	ld	ra,8(sp)
    8000028e:	6402                	ld	s0,0(sp)
    80000290:	0141                	add	sp,sp,16
    80000292:	8082                	ret

0000000080000294 <strncmp>:

int
strncmp(const char *p, const char *q, uint n)
{
    80000294:	1141                	add	sp,sp,-16
    80000296:	e422                	sd	s0,8(sp)
    80000298:	0800                	add	s0,sp,16
  while(n > 0 && *p && *p == *q)
    8000029a:	ce11                	beqz	a2,800002b6 <strncmp+0x22>
    8000029c:	00054783          	lbu	a5,0(a0)
    800002a0:	cf89                	beqz	a5,800002ba <strncmp+0x26>
    800002a2:	0005c703          	lbu	a4,0(a1)
    800002a6:	00f71a63          	bne	a4,a5,800002ba <strncmp+0x26>
    n--, p++, q++;
    800002aa:	367d                	addw	a2,a2,-1
    800002ac:	0505                	add	a0,a0,1
    800002ae:	0585                	add	a1,a1,1
  while(n > 0 && *p && *p == *q)
    800002b0:	f675                	bnez	a2,8000029c <strncmp+0x8>
  if(n == 0)
    return 0;
    800002b2:	4501                	li	a0,0
    800002b4:	a809                	j	800002c6 <strncmp+0x32>
    800002b6:	4501                	li	a0,0
    800002b8:	a039                	j	800002c6 <strncmp+0x32>
  if(n == 0)
    800002ba:	ca09                	beqz	a2,800002cc <strncmp+0x38>
  return (uchar)*p - (uchar)*q;
    800002bc:	00054503          	lbu	a0,0(a0)
    800002c0:	0005c783          	lbu	a5,0(a1)
    800002c4:	9d1d                	subw	a0,a0,a5
}
    800002c6:	6422                	ld	s0,8(sp)
    800002c8:	0141                	add	sp,sp,16
    800002ca:	8082                	ret
    return 0;
    800002cc:	4501                	li	a0,0
    800002ce:	bfe5                	j	800002c6 <strncmp+0x32>

00000000800002d0 <strncpy>:

char*
strncpy(char *s, const char *t, int n)
{
    800002d0:	1141                	add	sp,sp,-16
    800002d2:	e422                	sd	s0,8(sp)
    800002d4:	0800                	add	s0,sp,16
  char *os;

  os = s;
  while(n-- > 0 && (*s++ = *t++) != 0)
    800002d6:	87aa                	mv	a5,a0
    800002d8:	86b2                	mv	a3,a2
    800002da:	367d                	addw	a2,a2,-1
    800002dc:	00d05963          	blez	a3,800002ee <strncpy+0x1e>
    800002e0:	0785                	add	a5,a5,1
    800002e2:	0005c703          	lbu	a4,0(a1)
    800002e6:	fee78fa3          	sb	a4,-1(a5)
    800002ea:	0585                	add	a1,a1,1
    800002ec:	f775                	bnez	a4,800002d8 <strncpy+0x8>
    ;
  while(n-- > 0)
    800002ee:	873e                	mv	a4,a5
    800002f0:	9fb5                	addw	a5,a5,a3
    800002f2:	37fd                	addw	a5,a5,-1
    800002f4:	00c05963          	blez	a2,80000306 <strncpy+0x36>
    *s++ = 0;
    800002f8:	0705                	add	a4,a4,1
    800002fa:	fe070fa3          	sb	zero,-1(a4)
  while(n-- > 0)
    800002fe:	40e786bb          	subw	a3,a5,a4
    80000302:	fed04be3          	bgtz	a3,800002f8 <strncpy+0x28>
  return os;
}
    80000306:	6422                	ld	s0,8(sp)
    80000308:	0141                	add	sp,sp,16
    8000030a:	8082                	ret

000000008000030c <safestrcpy>:

// Like strncpy but guaranteed to NUL-terminate.
char*
safestrcpy(char *s, const char *t, int n)
{
    8000030c:	1141                	add	sp,sp,-16
    8000030e:	e422                	sd	s0,8(sp)
    80000310:	0800                	add	s0,sp,16
  char *os;

  os = s;
  if(n <= 0)
    80000312:	02c05363          	blez	a2,80000338 <safestrcpy+0x2c>
    80000316:	fff6069b          	addw	a3,a2,-1
    8000031a:	1682                	sll	a3,a3,0x20
    8000031c:	9281                	srl	a3,a3,0x20
    8000031e:	96ae                	add	a3,a3,a1
    80000320:	87aa                	mv	a5,a0
    return os;
  while(--n > 0 && (*s++ = *t++) != 0)
    80000322:	00d58963          	beq	a1,a3,80000334 <safestrcpy+0x28>
    80000326:	0585                	add	a1,a1,1
    80000328:	0785                	add	a5,a5,1
    8000032a:	fff5c703          	lbu	a4,-1(a1)
    8000032e:	fee78fa3          	sb	a4,-1(a5)
    80000332:	fb65                	bnez	a4,80000322 <safestrcpy+0x16>
    ;
  *s = 0;
    80000334:	00078023          	sb	zero,0(a5)
  return os;
}
    80000338:	6422                	ld	s0,8(sp)
    8000033a:	0141                	add	sp,sp,16
    8000033c:	8082                	ret

000000008000033e <strlen>:

int
strlen(const char *s)
{
    8000033e:	1141                	add	sp,sp,-16
    80000340:	e422                	sd	s0,8(sp)
    80000342:	0800                	add	s0,sp,16
  int n;

  for(n = 0; s[n]; n++)
    80000344:	00054783          	lbu	a5,0(a0)
    80000348:	cf91                	beqz	a5,80000364 <strlen+0x26>
    8000034a:	0505                	add	a0,a0,1
    8000034c:	87aa                	mv	a5,a0
    8000034e:	86be                	mv	a3,a5
    80000350:	0785                	add	a5,a5,1
    80000352:	fff7c703          	lbu	a4,-1(a5)
    80000356:	ff65                	bnez	a4,8000034e <strlen+0x10>
    80000358:	40a6853b          	subw	a0,a3,a0
    8000035c:	2505                	addw	a0,a0,1
    ;
  return n;
}
    8000035e:	6422                	ld	s0,8(sp)
    80000360:	0141                	add	sp,sp,16
    80000362:	8082                	ret
  for(n = 0; s[n]; n++)
    80000364:	4501                	li	a0,0
    80000366:	bfe5                	j	8000035e <strlen+0x20>

0000000080000368 <main>:
volatile static int started = 0;

// start() jumps here in supervisor mode on all CPUs.
void
main()
{
    80000368:	1141                	add	sp,sp,-16
    8000036a:	e406                	sd	ra,8(sp)
    8000036c:	e022                	sd	s0,0(sp)
    8000036e:	0800                	add	s0,sp,16
  if(cpuid() == 0){
    80000370:	00001097          	auipc	ra,0x1
    80000374:	c2e080e7          	jalr	-978(ra) # 80000f9e <cpuid>
    virtio_disk_init(); // emulated hard disk
    userinit();      // first user process
    __sync_synchronize();
    started = 1;
  } else {
    while(started == 0)
    80000378:	00008717          	auipc	a4,0x8
    8000037c:	71870713          	add	a4,a4,1816 # 80008a90 <started>
  if(cpuid() == 0){
    80000380:	c139                	beqz	a0,800003c6 <main+0x5e>
    while(started == 0)
    80000382:	431c                	lw	a5,0(a4)
    80000384:	2781                	sext.w	a5,a5
    80000386:	dff5                	beqz	a5,80000382 <main+0x1a>
      ;
    __sync_synchronize();
    80000388:	0ff0000f          	fence
    printf("hart %d starting\n", cpuid());
    8000038c:	00001097          	auipc	ra,0x1
    80000390:	c12080e7          	jalr	-1006(ra) # 80000f9e <cpuid>
    80000394:	85aa                	mv	a1,a0
    80000396:	00008517          	auipc	a0,0x8
    8000039a:	ca250513          	add	a0,a0,-862 # 80008038 <etext+0x38>
    8000039e:	00006097          	auipc	ra,0x6
    800003a2:	d8c080e7          	jalr	-628(ra) # 8000612a <printf>
    kvminithart();    // turn on paging
    800003a6:	00000097          	auipc	ra,0x0
    800003aa:	0d8080e7          	jalr	216(ra) # 8000047e <kvminithart>
    trapinithart();   // install kernel trap vector
    800003ae:	00002097          	auipc	ra,0x2
    800003b2:	a64080e7          	jalr	-1436(ra) # 80001e12 <trapinithart>
    plicinithart();   // ask PLIC for device interrupts
    800003b6:	00005097          	auipc	ra,0x5
    800003ba:	17a080e7          	jalr	378(ra) # 80005530 <plicinithart>
  }

  scheduler();        
    800003be:	00001097          	auipc	ra,0x1
    800003c2:	1ca080e7          	jalr	458(ra) # 80001588 <scheduler>
    consoleinit();
    800003c6:	00006097          	auipc	ra,0x6
    800003ca:	c2a080e7          	jalr	-982(ra) # 80005ff0 <consoleinit>
    printfinit();
    800003ce:	00006097          	auipc	ra,0x6
    800003d2:	f3c080e7          	jalr	-196(ra) # 8000630a <printfinit>
    printf("\n");
    800003d6:	00008517          	auipc	a0,0x8
    800003da:	c7250513          	add	a0,a0,-910 # 80008048 <etext+0x48>
    800003de:	00006097          	auipc	ra,0x6
    800003e2:	d4c080e7          	jalr	-692(ra) # 8000612a <printf>
    printf("xv6 kernel is booting\n");
    800003e6:	00008517          	auipc	a0,0x8
    800003ea:	c3a50513          	add	a0,a0,-966 # 80008020 <etext+0x20>
    800003ee:	00006097          	auipc	ra,0x6
    800003f2:	d3c080e7          	jalr	-708(ra) # 8000612a <printf>
    printf("\n");
    800003f6:	00008517          	auipc	a0,0x8
    800003fa:	c5250513          	add	a0,a0,-942 # 80008048 <etext+0x48>
    800003fe:	00006097          	auipc	ra,0x6
    80000402:	d2c080e7          	jalr	-724(ra) # 8000612a <printf>
    kinit();         // physical page allocator
    80000406:	00000097          	auipc	ra,0x0
    8000040a:	cd8080e7          	jalr	-808(ra) # 800000de <kinit>
    kvminit();       // create kernel page table
    8000040e:	00000097          	auipc	ra,0x0
    80000412:	326080e7          	jalr	806(ra) # 80000734 <kvminit>
    kvminithart();   // turn on paging
    80000416:	00000097          	auipc	ra,0x0
    8000041a:	068080e7          	jalr	104(ra) # 8000047e <kvminithart>
    procinit();      // process table
    8000041e:	00001097          	auipc	ra,0x1
    80000422:	ace080e7          	jalr	-1330(ra) # 80000eec <procinit>
    trapinit();      // trap vectors
    80000426:	00002097          	auipc	ra,0x2
    8000042a:	9c4080e7          	jalr	-1596(ra) # 80001dea <trapinit>
    trapinithart();  // install kernel trap vector
    8000042e:	00002097          	auipc	ra,0x2
    80000432:	9e4080e7          	jalr	-1564(ra) # 80001e12 <trapinithart>
    plicinit();      // set up interrupt controller
    80000436:	00005097          	auipc	ra,0x5
    8000043a:	0e4080e7          	jalr	228(ra) # 8000551a <plicinit>
    plicinithart();  // ask PLIC for device interrupts
    8000043e:	00005097          	auipc	ra,0x5
    80000442:	0f2080e7          	jalr	242(ra) # 80005530 <plicinithart>
    binit();         // buffer cache
    80000446:	00002097          	auipc	ra,0x2
    8000044a:	2f2080e7          	jalr	754(ra) # 80002738 <binit>
    iinit();         // inode table
    8000044e:	00003097          	auipc	ra,0x3
    80000452:	990080e7          	jalr	-1648(ra) # 80002dde <iinit>
    fileinit();      // file table
    80000456:	00004097          	auipc	ra,0x4
    8000045a:	906080e7          	jalr	-1786(ra) # 80003d5c <fileinit>
    virtio_disk_init(); // emulated hard disk
    8000045e:	00005097          	auipc	ra,0x5
    80000462:	1da080e7          	jalr	474(ra) # 80005638 <virtio_disk_init>
    userinit();      // first user process
    80000466:	00001097          	auipc	ra,0x1
    8000046a:	eea080e7          	jalr	-278(ra) # 80001350 <userinit>
    __sync_synchronize();
    8000046e:	0ff0000f          	fence
    started = 1;
    80000472:	4785                	li	a5,1
    80000474:	00008717          	auipc	a4,0x8
    80000478:	60f72e23          	sw	a5,1564(a4) # 80008a90 <started>
    8000047c:	b789                	j	800003be <main+0x56>

000000008000047e <kvminithart>:

// Switch h/w page table register to the kernel's page table,
// and enable paging.
void
kvminithart()
{
    8000047e:	1141                	add	sp,sp,-16
    80000480:	e422                	sd	s0,8(sp)
    80000482:	0800                	add	s0,sp,16
// flush the TLB.
static inline void
sfence_vma()
{
  // the zero, zero means flush all TLB entries.
  asm volatile("sfence.vma zero, zero");
    80000484:	12000073          	sfence.vma
  // wait for any previous writes to the page table memory to finish.
  sfence_vma();

  w_satp(MAKE_SATP(kernel_pagetable));
    80000488:	00008797          	auipc	a5,0x8
    8000048c:	6107b783          	ld	a5,1552(a5) # 80008a98 <kernel_pagetable>
    80000490:	83b1                	srl	a5,a5,0xc
    80000492:	577d                	li	a4,-1
    80000494:	177e                	sll	a4,a4,0x3f
    80000496:	8fd9                	or	a5,a5,a4
  asm volatile("csrw satp, %0" : : "r" (x));
    80000498:	18079073          	csrw	satp,a5
  asm volatile("sfence.vma zero, zero");
    8000049c:	12000073          	sfence.vma

  // flush stale entries from the TLB.
  sfence_vma();
}
    800004a0:	6422                	ld	s0,8(sp)
    800004a2:	0141                	add	sp,sp,16
    800004a4:	8082                	ret

00000000800004a6 <walk>:
//   21..29 -- 9 bits of level-1 index.
//   12..20 -- 9 bits of level-0 index.
//    0..11 -- 12 bits of byte offset within the page.
pte_t *
walk(pagetable_t pagetable, uint64 va, int alloc)
{
    800004a6:	7139                	add	sp,sp,-64
    800004a8:	fc06                	sd	ra,56(sp)
    800004aa:	f822                	sd	s0,48(sp)
    800004ac:	f426                	sd	s1,40(sp)
    800004ae:	f04a                	sd	s2,32(sp)
    800004b0:	ec4e                	sd	s3,24(sp)
    800004b2:	e852                	sd	s4,16(sp)
    800004b4:	e456                	sd	s5,8(sp)
    800004b6:	e05a                	sd	s6,0(sp)
    800004b8:	0080                	add	s0,sp,64
    800004ba:	84aa                	mv	s1,a0
    800004bc:	89ae                	mv	s3,a1
    800004be:	8ab2                	mv	s5,a2
  if(va >= MAXVA)
    800004c0:	57fd                	li	a5,-1
    800004c2:	83e9                	srl	a5,a5,0x1a
    800004c4:	4a79                	li	s4,30
    panic("walk");

  for(int level = 2; level > 0; level--) {
    800004c6:	4b31                	li	s6,12
  if(va >= MAXVA)
    800004c8:	04b7f263          	bgeu	a5,a1,8000050c <walk+0x66>
    panic("walk");
    800004cc:	00008517          	auipc	a0,0x8
    800004d0:	b8450513          	add	a0,a0,-1148 # 80008050 <etext+0x50>
    800004d4:	00006097          	auipc	ra,0x6
    800004d8:	c0c080e7          	jalr	-1012(ra) # 800060e0 <panic>
    pte_t *pte = &pagetable[PX(level, va)];
    if(*pte & PTE_V) {
      pagetable = (pagetable_t)PTE2PA(*pte);
    } else {
      if(!alloc || (pagetable = (pde_t*)kalloc()) == 0)
    800004dc:	060a8663          	beqz	s5,80000548 <walk+0xa2>
    800004e0:	00000097          	auipc	ra,0x0
    800004e4:	c84080e7          	jalr	-892(ra) # 80000164 <kalloc>
    800004e8:	84aa                	mv	s1,a0
    800004ea:	c529                	beqz	a0,80000534 <walk+0x8e>
        return 0;
      memset(pagetable, 0, PGSIZE);
    800004ec:	6605                	lui	a2,0x1
    800004ee:	4581                	li	a1,0
    800004f0:	00000097          	auipc	ra,0x0
    800004f4:	cd4080e7          	jalr	-812(ra) # 800001c4 <memset>
      *pte = PA2PTE(pagetable) | PTE_V;
    800004f8:	00c4d793          	srl	a5,s1,0xc
    800004fc:	07aa                	sll	a5,a5,0xa
    800004fe:	0017e793          	or	a5,a5,1
    80000502:	00f93023          	sd	a5,0(s2)
  for(int level = 2; level > 0; level--) {
    80000506:	3a5d                	addw	s4,s4,-9 # ffffffffffffeff7 <end+0xffffffff7ffdcc97>
    80000508:	036a0063          	beq	s4,s6,80000528 <walk+0x82>
    pte_t *pte = &pagetable[PX(level, va)];
    8000050c:	0149d933          	srl	s2,s3,s4
    80000510:	1ff97913          	and	s2,s2,511
    80000514:	090e                	sll	s2,s2,0x3
    80000516:	9926                	add	s2,s2,s1
    if(*pte & PTE_V) {
    80000518:	00093483          	ld	s1,0(s2)
    8000051c:	0014f793          	and	a5,s1,1
    80000520:	dfd5                	beqz	a5,800004dc <walk+0x36>
      pagetable = (pagetable_t)PTE2PA(*pte);
    80000522:	80a9                	srl	s1,s1,0xa
    80000524:	04b2                	sll	s1,s1,0xc
    80000526:	b7c5                	j	80000506 <walk+0x60>
    }
  }
  return &pagetable[PX(0, va)];
    80000528:	00c9d513          	srl	a0,s3,0xc
    8000052c:	1ff57513          	and	a0,a0,511
    80000530:	050e                	sll	a0,a0,0x3
    80000532:	9526                	add	a0,a0,s1
}
    80000534:	70e2                	ld	ra,56(sp)
    80000536:	7442                	ld	s0,48(sp)
    80000538:	74a2                	ld	s1,40(sp)
    8000053a:	7902                	ld	s2,32(sp)
    8000053c:	69e2                	ld	s3,24(sp)
    8000053e:	6a42                	ld	s4,16(sp)
    80000540:	6aa2                	ld	s5,8(sp)
    80000542:	6b02                	ld	s6,0(sp)
    80000544:	6121                	add	sp,sp,64
    80000546:	8082                	ret
        return 0;
    80000548:	4501                	li	a0,0
    8000054a:	b7ed                	j	80000534 <walk+0x8e>

000000008000054c <walkaddr>:
walkaddr(pagetable_t pagetable, uint64 va)
{
  pte_t *pte;
  uint64 pa;

  if(va >= MAXVA)
    8000054c:	57fd                	li	a5,-1
    8000054e:	83e9                	srl	a5,a5,0x1a
    80000550:	00b7f463          	bgeu	a5,a1,80000558 <walkaddr+0xc>
    return 0;
    80000554:	4501                	li	a0,0
    return 0;
  if((*pte & PTE_U) == 0)
    return 0;
  pa = PTE2PA(*pte);
  return pa;
}
    80000556:	8082                	ret
{
    80000558:	1141                	add	sp,sp,-16
    8000055a:	e406                	sd	ra,8(sp)
    8000055c:	e022                	sd	s0,0(sp)
    8000055e:	0800                	add	s0,sp,16
  pte = walk(pagetable, va, 0);
    80000560:	4601                	li	a2,0
    80000562:	00000097          	auipc	ra,0x0
    80000566:	f44080e7          	jalr	-188(ra) # 800004a6 <walk>
  if(pte == 0)
    8000056a:	c105                	beqz	a0,8000058a <walkaddr+0x3e>
  if((*pte & PTE_V) == 0)
    8000056c:	611c                	ld	a5,0(a0)
  if((*pte & PTE_U) == 0)
    8000056e:	0117f693          	and	a3,a5,17
    80000572:	4745                	li	a4,17
    return 0;
    80000574:	4501                	li	a0,0
  if((*pte & PTE_U) == 0)
    80000576:	00e68663          	beq	a3,a4,80000582 <walkaddr+0x36>
}
    8000057a:	60a2                	ld	ra,8(sp)
    8000057c:	6402                	ld	s0,0(sp)
    8000057e:	0141                	add	sp,sp,16
    80000580:	8082                	ret
  pa = PTE2PA(*pte);
    80000582:	83a9                	srl	a5,a5,0xa
    80000584:	00c79513          	sll	a0,a5,0xc
  return pa;
    80000588:	bfcd                	j	8000057a <walkaddr+0x2e>
    return 0;
    8000058a:	4501                	li	a0,0
    8000058c:	b7fd                	j	8000057a <walkaddr+0x2e>

000000008000058e <mappages>:
// physical addresses starting at pa. va and size might not
// be page-aligned. Returns 0 on success, -1 if walk() couldn't
// allocate a needed page-table page.
int
mappages(pagetable_t pagetable, uint64 va, uint64 size, uint64 pa, int perm)
{
    8000058e:	715d                	add	sp,sp,-80
    80000590:	e486                	sd	ra,72(sp)
    80000592:	e0a2                	sd	s0,64(sp)
    80000594:	fc26                	sd	s1,56(sp)
    80000596:	f84a                	sd	s2,48(sp)
    80000598:	f44e                	sd	s3,40(sp)
    8000059a:	f052                	sd	s4,32(sp)
    8000059c:	ec56                	sd	s5,24(sp)
    8000059e:	e85a                	sd	s6,16(sp)
    800005a0:	e45e                	sd	s7,8(sp)
    800005a2:	0880                	add	s0,sp,80
  uint64 a, last;
  pte_t *pte;

  if(size == 0)
    800005a4:	c639                	beqz	a2,800005f2 <mappages+0x64>
    800005a6:	8aaa                	mv	s5,a0
    800005a8:	8b3a                	mv	s6,a4
    panic("mappages: size");
  
  a = PGROUNDDOWN(va);
    800005aa:	777d                	lui	a4,0xfffff
    800005ac:	00e5f7b3          	and	a5,a1,a4
  last = PGROUNDDOWN(va + size - 1);
    800005b0:	fff58993          	add	s3,a1,-1
    800005b4:	99b2                	add	s3,s3,a2
    800005b6:	00e9f9b3          	and	s3,s3,a4
  a = PGROUNDDOWN(va);
    800005ba:	893e                	mv	s2,a5
    800005bc:	40f68a33          	sub	s4,a3,a5
    if(*pte & PTE_V)
      panic("mappages: remap");
    *pte = PA2PTE(pa) | perm | PTE_V;
    if(a == last)
      break;
    a += PGSIZE;
    800005c0:	6b85                	lui	s7,0x1
    800005c2:	012a04b3          	add	s1,s4,s2
    if((pte = walk(pagetable, a, 1)) == 0)
    800005c6:	4605                	li	a2,1
    800005c8:	85ca                	mv	a1,s2
    800005ca:	8556                	mv	a0,s5
    800005cc:	00000097          	auipc	ra,0x0
    800005d0:	eda080e7          	jalr	-294(ra) # 800004a6 <walk>
    800005d4:	cd1d                	beqz	a0,80000612 <mappages+0x84>
    if(*pte & PTE_V)
    800005d6:	611c                	ld	a5,0(a0)
    800005d8:	8b85                	and	a5,a5,1
    800005da:	e785                	bnez	a5,80000602 <mappages+0x74>
    *pte = PA2PTE(pa) | perm | PTE_V;
    800005dc:	80b1                	srl	s1,s1,0xc
    800005de:	04aa                	sll	s1,s1,0xa
    800005e0:	0164e4b3          	or	s1,s1,s6
    800005e4:	0014e493          	or	s1,s1,1
    800005e8:	e104                	sd	s1,0(a0)
    if(a == last)
    800005ea:	05390063          	beq	s2,s3,8000062a <mappages+0x9c>
    a += PGSIZE;
    800005ee:	995e                	add	s2,s2,s7
    if((pte = walk(pagetable, a, 1)) == 0)
    800005f0:	bfc9                	j	800005c2 <mappages+0x34>
    panic("mappages: size");
    800005f2:	00008517          	auipc	a0,0x8
    800005f6:	a6650513          	add	a0,a0,-1434 # 80008058 <etext+0x58>
    800005fa:	00006097          	auipc	ra,0x6
    800005fe:	ae6080e7          	jalr	-1306(ra) # 800060e0 <panic>
      panic("mappages: remap");
    80000602:	00008517          	auipc	a0,0x8
    80000606:	a6650513          	add	a0,a0,-1434 # 80008068 <etext+0x68>
    8000060a:	00006097          	auipc	ra,0x6
    8000060e:	ad6080e7          	jalr	-1322(ra) # 800060e0 <panic>
      return -1;
    80000612:	557d                	li	a0,-1
    pa += PGSIZE;
  }
  return 0;
}
    80000614:	60a6                	ld	ra,72(sp)
    80000616:	6406                	ld	s0,64(sp)
    80000618:	74e2                	ld	s1,56(sp)
    8000061a:	7942                	ld	s2,48(sp)
    8000061c:	79a2                	ld	s3,40(sp)
    8000061e:	7a02                	ld	s4,32(sp)
    80000620:	6ae2                	ld	s5,24(sp)
    80000622:	6b42                	ld	s6,16(sp)
    80000624:	6ba2                	ld	s7,8(sp)
    80000626:	6161                	add	sp,sp,80
    80000628:	8082                	ret
  return 0;
    8000062a:	4501                	li	a0,0
    8000062c:	b7e5                	j	80000614 <mappages+0x86>

000000008000062e <kvmmap>:
{
    8000062e:	1141                	add	sp,sp,-16
    80000630:	e406                	sd	ra,8(sp)
    80000632:	e022                	sd	s0,0(sp)
    80000634:	0800                	add	s0,sp,16
    80000636:	87b6                	mv	a5,a3
  if(mappages(kpgtbl, va, sz, pa, perm) != 0)
    80000638:	86b2                	mv	a3,a2
    8000063a:	863e                	mv	a2,a5
    8000063c:	00000097          	auipc	ra,0x0
    80000640:	f52080e7          	jalr	-174(ra) # 8000058e <mappages>
    80000644:	e509                	bnez	a0,8000064e <kvmmap+0x20>
}
    80000646:	60a2                	ld	ra,8(sp)
    80000648:	6402                	ld	s0,0(sp)
    8000064a:	0141                	add	sp,sp,16
    8000064c:	8082                	ret
    panic("kvmmap");
    8000064e:	00008517          	auipc	a0,0x8
    80000652:	a2a50513          	add	a0,a0,-1494 # 80008078 <etext+0x78>
    80000656:	00006097          	auipc	ra,0x6
    8000065a:	a8a080e7          	jalr	-1398(ra) # 800060e0 <panic>

000000008000065e <kvmmake>:
{
    8000065e:	1101                	add	sp,sp,-32
    80000660:	ec06                	sd	ra,24(sp)
    80000662:	e822                	sd	s0,16(sp)
    80000664:	e426                	sd	s1,8(sp)
    80000666:	e04a                	sd	s2,0(sp)
    80000668:	1000                	add	s0,sp,32
  kpgtbl = (pagetable_t) kalloc();
    8000066a:	00000097          	auipc	ra,0x0
    8000066e:	afa080e7          	jalr	-1286(ra) # 80000164 <kalloc>
    80000672:	84aa                	mv	s1,a0
  memset(kpgtbl, 0, PGSIZE);
    80000674:	6605                	lui	a2,0x1
    80000676:	4581                	li	a1,0
    80000678:	00000097          	auipc	ra,0x0
    8000067c:	b4c080e7          	jalr	-1204(ra) # 800001c4 <memset>
  kvmmap(kpgtbl, UART0, UART0, PGSIZE, PTE_R | PTE_W);
    80000680:	4719                	li	a4,6
    80000682:	6685                	lui	a3,0x1
    80000684:	10000637          	lui	a2,0x10000
    80000688:	100005b7          	lui	a1,0x10000
    8000068c:	8526                	mv	a0,s1
    8000068e:	00000097          	auipc	ra,0x0
    80000692:	fa0080e7          	jalr	-96(ra) # 8000062e <kvmmap>
  kvmmap(kpgtbl, VIRTIO0, VIRTIO0, PGSIZE, PTE_R | PTE_W);
    80000696:	4719                	li	a4,6
    80000698:	6685                	lui	a3,0x1
    8000069a:	10001637          	lui	a2,0x10001
    8000069e:	100015b7          	lui	a1,0x10001
    800006a2:	8526                	mv	a0,s1
    800006a4:	00000097          	auipc	ra,0x0
    800006a8:	f8a080e7          	jalr	-118(ra) # 8000062e <kvmmap>
  kvmmap(kpgtbl, PLIC, PLIC, 0x400000, PTE_R | PTE_W);
    800006ac:	4719                	li	a4,6
    800006ae:	004006b7          	lui	a3,0x400
    800006b2:	0c000637          	lui	a2,0xc000
    800006b6:	0c0005b7          	lui	a1,0xc000
    800006ba:	8526                	mv	a0,s1
    800006bc:	00000097          	auipc	ra,0x0
    800006c0:	f72080e7          	jalr	-142(ra) # 8000062e <kvmmap>
  kvmmap(kpgtbl, KERNBASE, KERNBASE, (uint64)etext-KERNBASE, PTE_R | PTE_X);
    800006c4:	00008917          	auipc	s2,0x8
    800006c8:	93c90913          	add	s2,s2,-1732 # 80008000 <etext>
    800006cc:	4729                	li	a4,10
    800006ce:	80008697          	auipc	a3,0x80008
    800006d2:	93268693          	add	a3,a3,-1742 # 8000 <_entry-0x7fff8000>
    800006d6:	4605                	li	a2,1
    800006d8:	067e                	sll	a2,a2,0x1f
    800006da:	85b2                	mv	a1,a2
    800006dc:	8526                	mv	a0,s1
    800006de:	00000097          	auipc	ra,0x0
    800006e2:	f50080e7          	jalr	-176(ra) # 8000062e <kvmmap>
  kvmmap(kpgtbl, (uint64)etext, (uint64)etext, PHYSTOP-(uint64)etext, PTE_R | PTE_W);
    800006e6:	4719                	li	a4,6
    800006e8:	46c5                	li	a3,17
    800006ea:	06ee                	sll	a3,a3,0x1b
    800006ec:	412686b3          	sub	a3,a3,s2
    800006f0:	864a                	mv	a2,s2
    800006f2:	85ca                	mv	a1,s2
    800006f4:	8526                	mv	a0,s1
    800006f6:	00000097          	auipc	ra,0x0
    800006fa:	f38080e7          	jalr	-200(ra) # 8000062e <kvmmap>
  kvmmap(kpgtbl, TRAMPOLINE, (uint64)trampoline, PGSIZE, PTE_R | PTE_X);
    800006fe:	4729                	li	a4,10
    80000700:	6685                	lui	a3,0x1
    80000702:	00007617          	auipc	a2,0x7
    80000706:	8fe60613          	add	a2,a2,-1794 # 80007000 <_trampoline>
    8000070a:	040005b7          	lui	a1,0x4000
    8000070e:	15fd                	add	a1,a1,-1 # 3ffffff <_entry-0x7c000001>
    80000710:	05b2                	sll	a1,a1,0xc
    80000712:	8526                	mv	a0,s1
    80000714:	00000097          	auipc	ra,0x0
    80000718:	f1a080e7          	jalr	-230(ra) # 8000062e <kvmmap>
  proc_mapstacks(kpgtbl);
    8000071c:	8526                	mv	a0,s1
    8000071e:	00000097          	auipc	ra,0x0
    80000722:	73a080e7          	jalr	1850(ra) # 80000e58 <proc_mapstacks>
}
    80000726:	8526                	mv	a0,s1
    80000728:	60e2                	ld	ra,24(sp)
    8000072a:	6442                	ld	s0,16(sp)
    8000072c:	64a2                	ld	s1,8(sp)
    8000072e:	6902                	ld	s2,0(sp)
    80000730:	6105                	add	sp,sp,32
    80000732:	8082                	ret

0000000080000734 <kvminit>:
{
    80000734:	1141                	add	sp,sp,-16
    80000736:	e406                	sd	ra,8(sp)
    80000738:	e022                	sd	s0,0(sp)
    8000073a:	0800                	add	s0,sp,16
  kernel_pagetable = kvmmake();
    8000073c:	00000097          	auipc	ra,0x0
    80000740:	f22080e7          	jalr	-222(ra) # 8000065e <kvmmake>
    80000744:	00008797          	auipc	a5,0x8
    80000748:	34a7ba23          	sd	a0,852(a5) # 80008a98 <kernel_pagetable>
}
    8000074c:	60a2                	ld	ra,8(sp)
    8000074e:	6402                	ld	s0,0(sp)
    80000750:	0141                	add	sp,sp,16
    80000752:	8082                	ret

0000000080000754 <uvmunmap>:
// Remove npages of mappings starting from va. va must be
// page-aligned. The mappings must exist.
// Optionally free the physical memory.
void
uvmunmap(pagetable_t pagetable, uint64 va, uint64 npages, int do_free)
{
    80000754:	715d                	add	sp,sp,-80
    80000756:	e486                	sd	ra,72(sp)
    80000758:	e0a2                	sd	s0,64(sp)
    8000075a:	fc26                	sd	s1,56(sp)
    8000075c:	f84a                	sd	s2,48(sp)
    8000075e:	f44e                	sd	s3,40(sp)
    80000760:	f052                	sd	s4,32(sp)
    80000762:	ec56                	sd	s5,24(sp)
    80000764:	e85a                	sd	s6,16(sp)
    80000766:	e45e                	sd	s7,8(sp)
    80000768:	0880                	add	s0,sp,80
  uint64 a;
  pte_t *pte;

  if((va % PGSIZE) != 0)
    8000076a:	03459793          	sll	a5,a1,0x34
    8000076e:	e795                	bnez	a5,8000079a <uvmunmap+0x46>
    80000770:	8a2a                	mv	s4,a0
    80000772:	892e                	mv	s2,a1
    80000774:	8ab6                	mv	s5,a3
    panic("uvmunmap: not aligned");

  for(a = va; a < va + npages*PGSIZE; a += PGSIZE){
    80000776:	0632                	sll	a2,a2,0xc
    80000778:	00b609b3          	add	s3,a2,a1
    if((pte = walk(pagetable, a, 0)) == 0)
      panic("uvmunmap: walk");
    if((*pte & PTE_V) == 0)
      panic("uvmunmap: not mapped");
    if(PTE_FLAGS(*pte) == PTE_V)
    8000077c:	4b85                	li	s7,1
  for(a = va; a < va + npages*PGSIZE; a += PGSIZE){
    8000077e:	6b05                	lui	s6,0x1
    80000780:	0735e263          	bltu	a1,s3,800007e4 <uvmunmap+0x90>
      uint64 pa = PTE2PA(*pte);
      kfree((void*)pa);
    }
    *pte = 0;
  }
}
    80000784:	60a6                	ld	ra,72(sp)
    80000786:	6406                	ld	s0,64(sp)
    80000788:	74e2                	ld	s1,56(sp)
    8000078a:	7942                	ld	s2,48(sp)
    8000078c:	79a2                	ld	s3,40(sp)
    8000078e:	7a02                	ld	s4,32(sp)
    80000790:	6ae2                	ld	s5,24(sp)
    80000792:	6b42                	ld	s6,16(sp)
    80000794:	6ba2                	ld	s7,8(sp)
    80000796:	6161                	add	sp,sp,80
    80000798:	8082                	ret
    panic("uvmunmap: not aligned");
    8000079a:	00008517          	auipc	a0,0x8
    8000079e:	8e650513          	add	a0,a0,-1818 # 80008080 <etext+0x80>
    800007a2:	00006097          	auipc	ra,0x6
    800007a6:	93e080e7          	jalr	-1730(ra) # 800060e0 <panic>
      panic("uvmunmap: walk");
    800007aa:	00008517          	auipc	a0,0x8
    800007ae:	8ee50513          	add	a0,a0,-1810 # 80008098 <etext+0x98>
    800007b2:	00006097          	auipc	ra,0x6
    800007b6:	92e080e7          	jalr	-1746(ra) # 800060e0 <panic>
      panic("uvmunmap: not mapped");
    800007ba:	00008517          	auipc	a0,0x8
    800007be:	8ee50513          	add	a0,a0,-1810 # 800080a8 <etext+0xa8>
    800007c2:	00006097          	auipc	ra,0x6
    800007c6:	91e080e7          	jalr	-1762(ra) # 800060e0 <panic>
      panic("uvmunmap: not a leaf");
    800007ca:	00008517          	auipc	a0,0x8
    800007ce:	8f650513          	add	a0,a0,-1802 # 800080c0 <etext+0xc0>
    800007d2:	00006097          	auipc	ra,0x6
    800007d6:	90e080e7          	jalr	-1778(ra) # 800060e0 <panic>
    *pte = 0;
    800007da:	0004b023          	sd	zero,0(s1)
  for(a = va; a < va + npages*PGSIZE; a += PGSIZE){
    800007de:	995a                	add	s2,s2,s6
    800007e0:	fb3972e3          	bgeu	s2,s3,80000784 <uvmunmap+0x30>
    if((pte = walk(pagetable, a, 0)) == 0)
    800007e4:	4601                	li	a2,0
    800007e6:	85ca                	mv	a1,s2
    800007e8:	8552                	mv	a0,s4
    800007ea:	00000097          	auipc	ra,0x0
    800007ee:	cbc080e7          	jalr	-836(ra) # 800004a6 <walk>
    800007f2:	84aa                	mv	s1,a0
    800007f4:	d95d                	beqz	a0,800007aa <uvmunmap+0x56>
    if((*pte & PTE_V) == 0)
    800007f6:	6108                	ld	a0,0(a0)
    800007f8:	00157793          	and	a5,a0,1
    800007fc:	dfdd                	beqz	a5,800007ba <uvmunmap+0x66>
    if(PTE_FLAGS(*pte) == PTE_V)
    800007fe:	3ff57793          	and	a5,a0,1023
    80000802:	fd7784e3          	beq	a5,s7,800007ca <uvmunmap+0x76>
    if(do_free){
    80000806:	fc0a8ae3          	beqz	s5,800007da <uvmunmap+0x86>
      uint64 pa = PTE2PA(*pte);
    8000080a:	8129                	srl	a0,a0,0xa
      kfree((void*)pa);
    8000080c:	0532                	sll	a0,a0,0xc
    8000080e:	00000097          	auipc	ra,0x0
    80000812:	80e080e7          	jalr	-2034(ra) # 8000001c <kfree>
    80000816:	b7d1                	j	800007da <uvmunmap+0x86>

0000000080000818 <uvmcreate>:

// create an empty user page table.
// returns 0 if out of memory.
pagetable_t
uvmcreate()
{
    80000818:	1101                	add	sp,sp,-32
    8000081a:	ec06                	sd	ra,24(sp)
    8000081c:	e822                	sd	s0,16(sp)
    8000081e:	e426                	sd	s1,8(sp)
    80000820:	1000                	add	s0,sp,32
  pagetable_t pagetable;
  pagetable = (pagetable_t) kalloc();
    80000822:	00000097          	auipc	ra,0x0
    80000826:	942080e7          	jalr	-1726(ra) # 80000164 <kalloc>
    8000082a:	84aa                	mv	s1,a0
  if(pagetable == 0)
    8000082c:	c519                	beqz	a0,8000083a <uvmcreate+0x22>
    return 0;
  memset(pagetable, 0, PGSIZE);
    8000082e:	6605                	lui	a2,0x1
    80000830:	4581                	li	a1,0
    80000832:	00000097          	auipc	ra,0x0
    80000836:	992080e7          	jalr	-1646(ra) # 800001c4 <memset>
  return pagetable;
}
    8000083a:	8526                	mv	a0,s1
    8000083c:	60e2                	ld	ra,24(sp)
    8000083e:	6442                	ld	s0,16(sp)
    80000840:	64a2                	ld	s1,8(sp)
    80000842:	6105                	add	sp,sp,32
    80000844:	8082                	ret

0000000080000846 <uvmfirst>:
// Load the user initcode into address 0 of pagetable,
// for the very first process.
// sz must be less than a page.
void
uvmfirst(pagetable_t pagetable, uchar *src, uint sz)
{
    80000846:	7179                	add	sp,sp,-48
    80000848:	f406                	sd	ra,40(sp)
    8000084a:	f022                	sd	s0,32(sp)
    8000084c:	ec26                	sd	s1,24(sp)
    8000084e:	e84a                	sd	s2,16(sp)
    80000850:	e44e                	sd	s3,8(sp)
    80000852:	e052                	sd	s4,0(sp)
    80000854:	1800                	add	s0,sp,48
  char *mem;

  if(sz >= PGSIZE)
    80000856:	6785                	lui	a5,0x1
    80000858:	04f67863          	bgeu	a2,a5,800008a8 <uvmfirst+0x62>
    8000085c:	8a2a                	mv	s4,a0
    8000085e:	89ae                	mv	s3,a1
    80000860:	84b2                	mv	s1,a2
    panic("uvmfirst: more than a page");
  mem = kalloc();
    80000862:	00000097          	auipc	ra,0x0
    80000866:	902080e7          	jalr	-1790(ra) # 80000164 <kalloc>
    8000086a:	892a                	mv	s2,a0
  memset(mem, 0, PGSIZE);
    8000086c:	6605                	lui	a2,0x1
    8000086e:	4581                	li	a1,0
    80000870:	00000097          	auipc	ra,0x0
    80000874:	954080e7          	jalr	-1708(ra) # 800001c4 <memset>
  mappages(pagetable, 0, PGSIZE, (uint64)mem, PTE_W|PTE_R|PTE_X|PTE_U);
    80000878:	4779                	li	a4,30
    8000087a:	86ca                	mv	a3,s2
    8000087c:	6605                	lui	a2,0x1
    8000087e:	4581                	li	a1,0
    80000880:	8552                	mv	a0,s4
    80000882:	00000097          	auipc	ra,0x0
    80000886:	d0c080e7          	jalr	-756(ra) # 8000058e <mappages>
  memmove(mem, src, sz);
    8000088a:	8626                	mv	a2,s1
    8000088c:	85ce                	mv	a1,s3
    8000088e:	854a                	mv	a0,s2
    80000890:	00000097          	auipc	ra,0x0
    80000894:	990080e7          	jalr	-1648(ra) # 80000220 <memmove>
}
    80000898:	70a2                	ld	ra,40(sp)
    8000089a:	7402                	ld	s0,32(sp)
    8000089c:	64e2                	ld	s1,24(sp)
    8000089e:	6942                	ld	s2,16(sp)
    800008a0:	69a2                	ld	s3,8(sp)
    800008a2:	6a02                	ld	s4,0(sp)
    800008a4:	6145                	add	sp,sp,48
    800008a6:	8082                	ret
    panic("uvmfirst: more than a page");
    800008a8:	00008517          	auipc	a0,0x8
    800008ac:	83050513          	add	a0,a0,-2000 # 800080d8 <etext+0xd8>
    800008b0:	00006097          	auipc	ra,0x6
    800008b4:	830080e7          	jalr	-2000(ra) # 800060e0 <panic>

00000000800008b8 <uvmdealloc>:
// newsz.  oldsz and newsz need not be page-aligned, nor does newsz
// need to be less than oldsz.  oldsz can be larger than the actual
// process size.  Returns the new process size.
uint64
uvmdealloc(pagetable_t pagetable, uint64 oldsz, uint64 newsz)
{
    800008b8:	1101                	add	sp,sp,-32
    800008ba:	ec06                	sd	ra,24(sp)
    800008bc:	e822                	sd	s0,16(sp)
    800008be:	e426                	sd	s1,8(sp)
    800008c0:	1000                	add	s0,sp,32
  if(newsz >= oldsz)
    return oldsz;
    800008c2:	84ae                	mv	s1,a1
  if(newsz >= oldsz)
    800008c4:	00b67d63          	bgeu	a2,a1,800008de <uvmdealloc+0x26>
    800008c8:	84b2                	mv	s1,a2

  if(PGROUNDUP(newsz) < PGROUNDUP(oldsz)){
    800008ca:	6785                	lui	a5,0x1
    800008cc:	17fd                	add	a5,a5,-1 # fff <_entry-0x7ffff001>
    800008ce:	00f60733          	add	a4,a2,a5
    800008d2:	76fd                	lui	a3,0xfffff
    800008d4:	8f75                	and	a4,a4,a3
    800008d6:	97ae                	add	a5,a5,a1
    800008d8:	8ff5                	and	a5,a5,a3
    800008da:	00f76863          	bltu	a4,a5,800008ea <uvmdealloc+0x32>
    int npages = (PGROUNDUP(oldsz) - PGROUNDUP(newsz)) / PGSIZE;
    uvmunmap(pagetable, PGROUNDUP(newsz), npages, 1);
  }

  return newsz;
}
    800008de:	8526                	mv	a0,s1
    800008e0:	60e2                	ld	ra,24(sp)
    800008e2:	6442                	ld	s0,16(sp)
    800008e4:	64a2                	ld	s1,8(sp)
    800008e6:	6105                	add	sp,sp,32
    800008e8:	8082                	ret
    int npages = (PGROUNDUP(oldsz) - PGROUNDUP(newsz)) / PGSIZE;
    800008ea:	8f99                	sub	a5,a5,a4
    800008ec:	83b1                	srl	a5,a5,0xc
    uvmunmap(pagetable, PGROUNDUP(newsz), npages, 1);
    800008ee:	4685                	li	a3,1
    800008f0:	0007861b          	sext.w	a2,a5
    800008f4:	85ba                	mv	a1,a4
    800008f6:	00000097          	auipc	ra,0x0
    800008fa:	e5e080e7          	jalr	-418(ra) # 80000754 <uvmunmap>
    800008fe:	b7c5                	j	800008de <uvmdealloc+0x26>

0000000080000900 <uvmalloc>:
  if(newsz < oldsz)
    80000900:	0ab66563          	bltu	a2,a1,800009aa <uvmalloc+0xaa>
{
    80000904:	7139                	add	sp,sp,-64
    80000906:	fc06                	sd	ra,56(sp)
    80000908:	f822                	sd	s0,48(sp)
    8000090a:	f426                	sd	s1,40(sp)
    8000090c:	f04a                	sd	s2,32(sp)
    8000090e:	ec4e                	sd	s3,24(sp)
    80000910:	e852                	sd	s4,16(sp)
    80000912:	e456                	sd	s5,8(sp)
    80000914:	e05a                	sd	s6,0(sp)
    80000916:	0080                	add	s0,sp,64
    80000918:	8aaa                	mv	s5,a0
    8000091a:	8a32                	mv	s4,a2
  oldsz = PGROUNDUP(oldsz);
    8000091c:	6785                	lui	a5,0x1
    8000091e:	17fd                	add	a5,a5,-1 # fff <_entry-0x7ffff001>
    80000920:	95be                	add	a1,a1,a5
    80000922:	77fd                	lui	a5,0xfffff
    80000924:	00f5f9b3          	and	s3,a1,a5
  for(a = oldsz; a < newsz; a += PGSIZE){
    80000928:	08c9f363          	bgeu	s3,a2,800009ae <uvmalloc+0xae>
    8000092c:	894e                	mv	s2,s3
    if(mappages(pagetable, a, PGSIZE, (uint64)mem, PTE_R|PTE_U|xperm) != 0){
    8000092e:	0126eb13          	or	s6,a3,18
    mem = kalloc();
    80000932:	00000097          	auipc	ra,0x0
    80000936:	832080e7          	jalr	-1998(ra) # 80000164 <kalloc>
    8000093a:	84aa                	mv	s1,a0
    if(mem == 0){
    8000093c:	c51d                	beqz	a0,8000096a <uvmalloc+0x6a>
    memset(mem, 0, PGSIZE);
    8000093e:	6605                	lui	a2,0x1
    80000940:	4581                	li	a1,0
    80000942:	00000097          	auipc	ra,0x0
    80000946:	882080e7          	jalr	-1918(ra) # 800001c4 <memset>
    if(mappages(pagetable, a, PGSIZE, (uint64)mem, PTE_R|PTE_U|xperm) != 0){
    8000094a:	875a                	mv	a4,s6
    8000094c:	86a6                	mv	a3,s1
    8000094e:	6605                	lui	a2,0x1
    80000950:	85ca                	mv	a1,s2
    80000952:	8556                	mv	a0,s5
    80000954:	00000097          	auipc	ra,0x0
    80000958:	c3a080e7          	jalr	-966(ra) # 8000058e <mappages>
    8000095c:	e90d                	bnez	a0,8000098e <uvmalloc+0x8e>
  for(a = oldsz; a < newsz; a += PGSIZE){
    8000095e:	6785                	lui	a5,0x1
    80000960:	993e                	add	s2,s2,a5
    80000962:	fd4968e3          	bltu	s2,s4,80000932 <uvmalloc+0x32>
  return newsz;
    80000966:	8552                	mv	a0,s4
    80000968:	a809                	j	8000097a <uvmalloc+0x7a>
      uvmdealloc(pagetable, a, oldsz);
    8000096a:	864e                	mv	a2,s3
    8000096c:	85ca                	mv	a1,s2
    8000096e:	8556                	mv	a0,s5
    80000970:	00000097          	auipc	ra,0x0
    80000974:	f48080e7          	jalr	-184(ra) # 800008b8 <uvmdealloc>
      return 0;
    80000978:	4501                	li	a0,0
}
    8000097a:	70e2                	ld	ra,56(sp)
    8000097c:	7442                	ld	s0,48(sp)
    8000097e:	74a2                	ld	s1,40(sp)
    80000980:	7902                	ld	s2,32(sp)
    80000982:	69e2                	ld	s3,24(sp)
    80000984:	6a42                	ld	s4,16(sp)
    80000986:	6aa2                	ld	s5,8(sp)
    80000988:	6b02                	ld	s6,0(sp)
    8000098a:	6121                	add	sp,sp,64
    8000098c:	8082                	ret
      kfree(mem);
    8000098e:	8526                	mv	a0,s1
    80000990:	fffff097          	auipc	ra,0xfffff
    80000994:	68c080e7          	jalr	1676(ra) # 8000001c <kfree>
      uvmdealloc(pagetable, a, oldsz);
    80000998:	864e                	mv	a2,s3
    8000099a:	85ca                	mv	a1,s2
    8000099c:	8556                	mv	a0,s5
    8000099e:	00000097          	auipc	ra,0x0
    800009a2:	f1a080e7          	jalr	-230(ra) # 800008b8 <uvmdealloc>
      return 0;
    800009a6:	4501                	li	a0,0
    800009a8:	bfc9                	j	8000097a <uvmalloc+0x7a>
    return oldsz;
    800009aa:	852e                	mv	a0,a1
}
    800009ac:	8082                	ret
  return newsz;
    800009ae:	8532                	mv	a0,a2
    800009b0:	b7e9                	j	8000097a <uvmalloc+0x7a>

00000000800009b2 <freewalk>:

// Recursively free page-table pages.
// All leaf mappings must already have been removed.
void
freewalk(pagetable_t pagetable)
{
    800009b2:	7179                	add	sp,sp,-48
    800009b4:	f406                	sd	ra,40(sp)
    800009b6:	f022                	sd	s0,32(sp)
    800009b8:	ec26                	sd	s1,24(sp)
    800009ba:	e84a                	sd	s2,16(sp)
    800009bc:	e44e                	sd	s3,8(sp)
    800009be:	e052                	sd	s4,0(sp)
    800009c0:	1800                	add	s0,sp,48
    800009c2:	8a2a                	mv	s4,a0
  // there are 2^9 = 512 PTEs in a page table.
  for(int i = 0; i < 512; i++){
    800009c4:	84aa                	mv	s1,a0
    800009c6:	6905                	lui	s2,0x1
    800009c8:	992a                	add	s2,s2,a0
    pte_t pte = pagetable[i];
    if((pte & PTE_V) && (pte & (PTE_R|PTE_W|PTE_X)) == 0){
    800009ca:	4985                	li	s3,1
    800009cc:	a829                	j	800009e6 <freewalk+0x34>
      // this PTE points to a lower-level page table.
      uint64 child = PTE2PA(pte);
    800009ce:	83a9                	srl	a5,a5,0xa
      freewalk((pagetable_t)child);
    800009d0:	00c79513          	sll	a0,a5,0xc
    800009d4:	00000097          	auipc	ra,0x0
    800009d8:	fde080e7          	jalr	-34(ra) # 800009b2 <freewalk>
      pagetable[i] = 0;
    800009dc:	0004b023          	sd	zero,0(s1)
  for(int i = 0; i < 512; i++){
    800009e0:	04a1                	add	s1,s1,8
    800009e2:	03248163          	beq	s1,s2,80000a04 <freewalk+0x52>
    pte_t pte = pagetable[i];
    800009e6:	609c                	ld	a5,0(s1)
    if((pte & PTE_V) && (pte & (PTE_R|PTE_W|PTE_X)) == 0){
    800009e8:	00f7f713          	and	a4,a5,15
    800009ec:	ff3701e3          	beq	a4,s3,800009ce <freewalk+0x1c>
    } else if(pte & PTE_V){
    800009f0:	8b85                	and	a5,a5,1
    800009f2:	d7fd                	beqz	a5,800009e0 <freewalk+0x2e>
      panic("freewalk: leaf");
    800009f4:	00007517          	auipc	a0,0x7
    800009f8:	70450513          	add	a0,a0,1796 # 800080f8 <etext+0xf8>
    800009fc:	00005097          	auipc	ra,0x5
    80000a00:	6e4080e7          	jalr	1764(ra) # 800060e0 <panic>
    }
  }
  kfree((void*)pagetable);
    80000a04:	8552                	mv	a0,s4
    80000a06:	fffff097          	auipc	ra,0xfffff
    80000a0a:	616080e7          	jalr	1558(ra) # 8000001c <kfree>
}
    80000a0e:	70a2                	ld	ra,40(sp)
    80000a10:	7402                	ld	s0,32(sp)
    80000a12:	64e2                	ld	s1,24(sp)
    80000a14:	6942                	ld	s2,16(sp)
    80000a16:	69a2                	ld	s3,8(sp)
    80000a18:	6a02                	ld	s4,0(sp)
    80000a1a:	6145                	add	sp,sp,48
    80000a1c:	8082                	ret

0000000080000a1e <uvmfree>:

// Free user memory pages,
// then free page-table pages.
void
uvmfree(pagetable_t pagetable, uint64 sz)
{
    80000a1e:	1101                	add	sp,sp,-32
    80000a20:	ec06                	sd	ra,24(sp)
    80000a22:	e822                	sd	s0,16(sp)
    80000a24:	e426                	sd	s1,8(sp)
    80000a26:	1000                	add	s0,sp,32
    80000a28:	84aa                	mv	s1,a0
  if(sz > 0)
    80000a2a:	e999                	bnez	a1,80000a40 <uvmfree+0x22>
    uvmunmap(pagetable, 0, PGROUNDUP(sz)/PGSIZE, 1);
  freewalk(pagetable);
    80000a2c:	8526                	mv	a0,s1
    80000a2e:	00000097          	auipc	ra,0x0
    80000a32:	f84080e7          	jalr	-124(ra) # 800009b2 <freewalk>
}
    80000a36:	60e2                	ld	ra,24(sp)
    80000a38:	6442                	ld	s0,16(sp)
    80000a3a:	64a2                	ld	s1,8(sp)
    80000a3c:	6105                	add	sp,sp,32
    80000a3e:	8082                	ret
    uvmunmap(pagetable, 0, PGROUNDUP(sz)/PGSIZE, 1);
    80000a40:	6785                	lui	a5,0x1
    80000a42:	17fd                	add	a5,a5,-1 # fff <_entry-0x7ffff001>
    80000a44:	95be                	add	a1,a1,a5
    80000a46:	4685                	li	a3,1
    80000a48:	00c5d613          	srl	a2,a1,0xc
    80000a4c:	4581                	li	a1,0
    80000a4e:	00000097          	auipc	ra,0x0
    80000a52:	d06080e7          	jalr	-762(ra) # 80000754 <uvmunmap>
    80000a56:	bfd9                	j	80000a2c <uvmfree+0xe>

0000000080000a58 <uvmcopy>:
  pte_t *pte;
  uint64 pa, i;
  uint flags;
  char *mem;

  for(i = 0; i < sz; i += PGSIZE){
    80000a58:	c679                	beqz	a2,80000b26 <uvmcopy+0xce>
{
    80000a5a:	715d                	add	sp,sp,-80
    80000a5c:	e486                	sd	ra,72(sp)
    80000a5e:	e0a2                	sd	s0,64(sp)
    80000a60:	fc26                	sd	s1,56(sp)
    80000a62:	f84a                	sd	s2,48(sp)
    80000a64:	f44e                	sd	s3,40(sp)
    80000a66:	f052                	sd	s4,32(sp)
    80000a68:	ec56                	sd	s5,24(sp)
    80000a6a:	e85a                	sd	s6,16(sp)
    80000a6c:	e45e                	sd	s7,8(sp)
    80000a6e:	0880                	add	s0,sp,80
    80000a70:	8b2a                	mv	s6,a0
    80000a72:	8aae                	mv	s5,a1
    80000a74:	8a32                	mv	s4,a2
  for(i = 0; i < sz; i += PGSIZE){
    80000a76:	4981                	li	s3,0
    if((pte = walk(old, i, 0)) == 0)
    80000a78:	4601                	li	a2,0
    80000a7a:	85ce                	mv	a1,s3
    80000a7c:	855a                	mv	a0,s6
    80000a7e:	00000097          	auipc	ra,0x0
    80000a82:	a28080e7          	jalr	-1496(ra) # 800004a6 <walk>
    80000a86:	c531                	beqz	a0,80000ad2 <uvmcopy+0x7a>
      panic("uvmcopy: pte should exist");
    if((*pte & PTE_V) == 0)
    80000a88:	6118                	ld	a4,0(a0)
    80000a8a:	00177793          	and	a5,a4,1
    80000a8e:	cbb1                	beqz	a5,80000ae2 <uvmcopy+0x8a>
      panic("uvmcopy: page not present");
    pa = PTE2PA(*pte);
    80000a90:	00a75593          	srl	a1,a4,0xa
    80000a94:	00c59b93          	sll	s7,a1,0xc
    flags = PTE_FLAGS(*pte);
    80000a98:	3ff77493          	and	s1,a4,1023
    if((mem = kalloc()) == 0)
    80000a9c:	fffff097          	auipc	ra,0xfffff
    80000aa0:	6c8080e7          	jalr	1736(ra) # 80000164 <kalloc>
    80000aa4:	892a                	mv	s2,a0
    80000aa6:	c939                	beqz	a0,80000afc <uvmcopy+0xa4>
      goto err;
    memmove(mem, (char*)pa, PGSIZE);
    80000aa8:	6605                	lui	a2,0x1
    80000aaa:	85de                	mv	a1,s7
    80000aac:	fffff097          	auipc	ra,0xfffff
    80000ab0:	774080e7          	jalr	1908(ra) # 80000220 <memmove>
    if(mappages(new, i, PGSIZE, (uint64)mem, flags) != 0){
    80000ab4:	8726                	mv	a4,s1
    80000ab6:	86ca                	mv	a3,s2
    80000ab8:	6605                	lui	a2,0x1
    80000aba:	85ce                	mv	a1,s3
    80000abc:	8556                	mv	a0,s5
    80000abe:	00000097          	auipc	ra,0x0
    80000ac2:	ad0080e7          	jalr	-1328(ra) # 8000058e <mappages>
    80000ac6:	e515                	bnez	a0,80000af2 <uvmcopy+0x9a>
  for(i = 0; i < sz; i += PGSIZE){
    80000ac8:	6785                	lui	a5,0x1
    80000aca:	99be                	add	s3,s3,a5
    80000acc:	fb49e6e3          	bltu	s3,s4,80000a78 <uvmcopy+0x20>
    80000ad0:	a081                	j	80000b10 <uvmcopy+0xb8>
      panic("uvmcopy: pte should exist");
    80000ad2:	00007517          	auipc	a0,0x7
    80000ad6:	63650513          	add	a0,a0,1590 # 80008108 <etext+0x108>
    80000ada:	00005097          	auipc	ra,0x5
    80000ade:	606080e7          	jalr	1542(ra) # 800060e0 <panic>
      panic("uvmcopy: page not present");
    80000ae2:	00007517          	auipc	a0,0x7
    80000ae6:	64650513          	add	a0,a0,1606 # 80008128 <etext+0x128>
    80000aea:	00005097          	auipc	ra,0x5
    80000aee:	5f6080e7          	jalr	1526(ra) # 800060e0 <panic>
      kfree(mem);
    80000af2:	854a                	mv	a0,s2
    80000af4:	fffff097          	auipc	ra,0xfffff
    80000af8:	528080e7          	jalr	1320(ra) # 8000001c <kfree>
    }
  }
  return 0;

 err:
  uvmunmap(new, 0, i / PGSIZE, 1);
    80000afc:	4685                	li	a3,1
    80000afe:	00c9d613          	srl	a2,s3,0xc
    80000b02:	4581                	li	a1,0
    80000b04:	8556                	mv	a0,s5
    80000b06:	00000097          	auipc	ra,0x0
    80000b0a:	c4e080e7          	jalr	-946(ra) # 80000754 <uvmunmap>
  return -1;
    80000b0e:	557d                	li	a0,-1
}
    80000b10:	60a6                	ld	ra,72(sp)
    80000b12:	6406                	ld	s0,64(sp)
    80000b14:	74e2                	ld	s1,56(sp)
    80000b16:	7942                	ld	s2,48(sp)
    80000b18:	79a2                	ld	s3,40(sp)
    80000b1a:	7a02                	ld	s4,32(sp)
    80000b1c:	6ae2                	ld	s5,24(sp)
    80000b1e:	6b42                	ld	s6,16(sp)
    80000b20:	6ba2                	ld	s7,8(sp)
    80000b22:	6161                	add	sp,sp,80
    80000b24:	8082                	ret
  return 0;
    80000b26:	4501                	li	a0,0
}
    80000b28:	8082                	ret

0000000080000b2a <uvmclear>:

// mark a PTE invalid for user access.
// used by exec for the user stack guard page.
void
uvmclear(pagetable_t pagetable, uint64 va)
{
    80000b2a:	1141                	add	sp,sp,-16
    80000b2c:	e406                	sd	ra,8(sp)
    80000b2e:	e022                	sd	s0,0(sp)
    80000b30:	0800                	add	s0,sp,16
  pte_t *pte;
  
  pte = walk(pagetable, va, 0);
    80000b32:	4601                	li	a2,0
    80000b34:	00000097          	auipc	ra,0x0
    80000b38:	972080e7          	jalr	-1678(ra) # 800004a6 <walk>
  if(pte == 0)
    80000b3c:	c901                	beqz	a0,80000b4c <uvmclear+0x22>
    panic("uvmclear");
  *pte &= ~PTE_U;
    80000b3e:	611c                	ld	a5,0(a0)
    80000b40:	9bbd                	and	a5,a5,-17
    80000b42:	e11c                	sd	a5,0(a0)
}
    80000b44:	60a2                	ld	ra,8(sp)
    80000b46:	6402                	ld	s0,0(sp)
    80000b48:	0141                	add	sp,sp,16
    80000b4a:	8082                	ret
    panic("uvmclear");
    80000b4c:	00007517          	auipc	a0,0x7
    80000b50:	5fc50513          	add	a0,a0,1532 # 80008148 <etext+0x148>
    80000b54:	00005097          	auipc	ra,0x5
    80000b58:	58c080e7          	jalr	1420(ra) # 800060e0 <panic>

0000000080000b5c <copyout>:
int
copyout(pagetable_t pagetable, uint64 dstva, char *src, uint64 len)
{
  uint64 n, va0, pa0;

  while(len > 0){
    80000b5c:	c6bd                	beqz	a3,80000bca <copyout+0x6e>
{
    80000b5e:	715d                	add	sp,sp,-80
    80000b60:	e486                	sd	ra,72(sp)
    80000b62:	e0a2                	sd	s0,64(sp)
    80000b64:	fc26                	sd	s1,56(sp)
    80000b66:	f84a                	sd	s2,48(sp)
    80000b68:	f44e                	sd	s3,40(sp)
    80000b6a:	f052                	sd	s4,32(sp)
    80000b6c:	ec56                	sd	s5,24(sp)
    80000b6e:	e85a                	sd	s6,16(sp)
    80000b70:	e45e                	sd	s7,8(sp)
    80000b72:	e062                	sd	s8,0(sp)
    80000b74:	0880                	add	s0,sp,80
    80000b76:	8b2a                	mv	s6,a0
    80000b78:	8c2e                	mv	s8,a1
    80000b7a:	8a32                	mv	s4,a2
    80000b7c:	89b6                	mv	s3,a3
    va0 = PGROUNDDOWN(dstva);
    80000b7e:	7bfd                	lui	s7,0xfffff
    pa0 = walkaddr(pagetable, va0);
    if(pa0 == 0)
      return -1;
    n = PGSIZE - (dstva - va0);
    80000b80:	6a85                	lui	s5,0x1
    80000b82:	a015                	j	80000ba6 <copyout+0x4a>
    if(n > len)
      n = len;
    memmove((void *)(pa0 + (dstva - va0)), src, n);
    80000b84:	9562                	add	a0,a0,s8
    80000b86:	0004861b          	sext.w	a2,s1
    80000b8a:	85d2                	mv	a1,s4
    80000b8c:	41250533          	sub	a0,a0,s2
    80000b90:	fffff097          	auipc	ra,0xfffff
    80000b94:	690080e7          	jalr	1680(ra) # 80000220 <memmove>

    len -= n;
    80000b98:	409989b3          	sub	s3,s3,s1
    src += n;
    80000b9c:	9a26                	add	s4,s4,s1
    dstva = va0 + PGSIZE;
    80000b9e:	01590c33          	add	s8,s2,s5
  while(len > 0){
    80000ba2:	02098263          	beqz	s3,80000bc6 <copyout+0x6a>
    va0 = PGROUNDDOWN(dstva);
    80000ba6:	017c7933          	and	s2,s8,s7
    pa0 = walkaddr(pagetable, va0);
    80000baa:	85ca                	mv	a1,s2
    80000bac:	855a                	mv	a0,s6
    80000bae:	00000097          	auipc	ra,0x0
    80000bb2:	99e080e7          	jalr	-1634(ra) # 8000054c <walkaddr>
    if(pa0 == 0)
    80000bb6:	cd01                	beqz	a0,80000bce <copyout+0x72>
    n = PGSIZE - (dstva - va0);
    80000bb8:	418904b3          	sub	s1,s2,s8
    80000bbc:	94d6                	add	s1,s1,s5
    80000bbe:	fc99f3e3          	bgeu	s3,s1,80000b84 <copyout+0x28>
    80000bc2:	84ce                	mv	s1,s3
    80000bc4:	b7c1                	j	80000b84 <copyout+0x28>
  }
  return 0;
    80000bc6:	4501                	li	a0,0
    80000bc8:	a021                	j	80000bd0 <copyout+0x74>
    80000bca:	4501                	li	a0,0
}
    80000bcc:	8082                	ret
      return -1;
    80000bce:	557d                	li	a0,-1
}
    80000bd0:	60a6                	ld	ra,72(sp)
    80000bd2:	6406                	ld	s0,64(sp)
    80000bd4:	74e2                	ld	s1,56(sp)
    80000bd6:	7942                	ld	s2,48(sp)
    80000bd8:	79a2                	ld	s3,40(sp)
    80000bda:	7a02                	ld	s4,32(sp)
    80000bdc:	6ae2                	ld	s5,24(sp)
    80000bde:	6b42                	ld	s6,16(sp)
    80000be0:	6ba2                	ld	s7,8(sp)
    80000be2:	6c02                	ld	s8,0(sp)
    80000be4:	6161                	add	sp,sp,80
    80000be6:	8082                	ret

0000000080000be8 <copyin>:
int
copyin(pagetable_t pagetable, char *dst, uint64 srcva, uint64 len)
{
  uint64 n, va0, pa0;

  while(len > 0){
    80000be8:	caa5                	beqz	a3,80000c58 <copyin+0x70>
{
    80000bea:	715d                	add	sp,sp,-80
    80000bec:	e486                	sd	ra,72(sp)
    80000bee:	e0a2                	sd	s0,64(sp)
    80000bf0:	fc26                	sd	s1,56(sp)
    80000bf2:	f84a                	sd	s2,48(sp)
    80000bf4:	f44e                	sd	s3,40(sp)
    80000bf6:	f052                	sd	s4,32(sp)
    80000bf8:	ec56                	sd	s5,24(sp)
    80000bfa:	e85a                	sd	s6,16(sp)
    80000bfc:	e45e                	sd	s7,8(sp)
    80000bfe:	e062                	sd	s8,0(sp)
    80000c00:	0880                	add	s0,sp,80
    80000c02:	8b2a                	mv	s6,a0
    80000c04:	8a2e                	mv	s4,a1
    80000c06:	8c32                	mv	s8,a2
    80000c08:	89b6                	mv	s3,a3
    va0 = PGROUNDDOWN(srcva);
    80000c0a:	7bfd                	lui	s7,0xfffff
    pa0 = walkaddr(pagetable, va0);
    if(pa0 == 0)
      return -1;
    n = PGSIZE - (srcva - va0);
    80000c0c:	6a85                	lui	s5,0x1
    80000c0e:	a01d                	j	80000c34 <copyin+0x4c>
    if(n > len)
      n = len;
    memmove(dst, (void *)(pa0 + (srcva - va0)), n);
    80000c10:	018505b3          	add	a1,a0,s8
    80000c14:	0004861b          	sext.w	a2,s1
    80000c18:	412585b3          	sub	a1,a1,s2
    80000c1c:	8552                	mv	a0,s4
    80000c1e:	fffff097          	auipc	ra,0xfffff
    80000c22:	602080e7          	jalr	1538(ra) # 80000220 <memmove>

    len -= n;
    80000c26:	409989b3          	sub	s3,s3,s1
    dst += n;
    80000c2a:	9a26                	add	s4,s4,s1
    srcva = va0 + PGSIZE;
    80000c2c:	01590c33          	add	s8,s2,s5
  while(len > 0){
    80000c30:	02098263          	beqz	s3,80000c54 <copyin+0x6c>
    va0 = PGROUNDDOWN(srcva);
    80000c34:	017c7933          	and	s2,s8,s7
    pa0 = walkaddr(pagetable, va0);
    80000c38:	85ca                	mv	a1,s2
    80000c3a:	855a                	mv	a0,s6
    80000c3c:	00000097          	auipc	ra,0x0
    80000c40:	910080e7          	jalr	-1776(ra) # 8000054c <walkaddr>
    if(pa0 == 0)
    80000c44:	cd01                	beqz	a0,80000c5c <copyin+0x74>
    n = PGSIZE - (srcva - va0);
    80000c46:	418904b3          	sub	s1,s2,s8
    80000c4a:	94d6                	add	s1,s1,s5
    80000c4c:	fc99f2e3          	bgeu	s3,s1,80000c10 <copyin+0x28>
    80000c50:	84ce                	mv	s1,s3
    80000c52:	bf7d                	j	80000c10 <copyin+0x28>
  }
  return 0;
    80000c54:	4501                	li	a0,0
    80000c56:	a021                	j	80000c5e <copyin+0x76>
    80000c58:	4501                	li	a0,0
}
    80000c5a:	8082                	ret
      return -1;
    80000c5c:	557d                	li	a0,-1
}
    80000c5e:	60a6                	ld	ra,72(sp)
    80000c60:	6406                	ld	s0,64(sp)
    80000c62:	74e2                	ld	s1,56(sp)
    80000c64:	7942                	ld	s2,48(sp)
    80000c66:	79a2                	ld	s3,40(sp)
    80000c68:	7a02                	ld	s4,32(sp)
    80000c6a:	6ae2                	ld	s5,24(sp)
    80000c6c:	6b42                	ld	s6,16(sp)
    80000c6e:	6ba2                	ld	s7,8(sp)
    80000c70:	6c02                	ld	s8,0(sp)
    80000c72:	6161                	add	sp,sp,80
    80000c74:	8082                	ret

0000000080000c76 <copyinstr>:
copyinstr(pagetable_t pagetable, char *dst, uint64 srcva, uint64 max)
{
  uint64 n, va0, pa0;
  int got_null = 0;

  while(got_null == 0 && max > 0){
    80000c76:	c2dd                	beqz	a3,80000d1c <copyinstr+0xa6>
{
    80000c78:	715d                	add	sp,sp,-80
    80000c7a:	e486                	sd	ra,72(sp)
    80000c7c:	e0a2                	sd	s0,64(sp)
    80000c7e:	fc26                	sd	s1,56(sp)
    80000c80:	f84a                	sd	s2,48(sp)
    80000c82:	f44e                	sd	s3,40(sp)
    80000c84:	f052                	sd	s4,32(sp)
    80000c86:	ec56                	sd	s5,24(sp)
    80000c88:	e85a                	sd	s6,16(sp)
    80000c8a:	e45e                	sd	s7,8(sp)
    80000c8c:	0880                	add	s0,sp,80
    80000c8e:	8a2a                	mv	s4,a0
    80000c90:	8b2e                	mv	s6,a1
    80000c92:	8bb2                	mv	s7,a2
    80000c94:	84b6                	mv	s1,a3
    va0 = PGROUNDDOWN(srcva);
    80000c96:	7afd                	lui	s5,0xfffff
    pa0 = walkaddr(pagetable, va0);
    if(pa0 == 0)
      return -1;
    n = PGSIZE - (srcva - va0);
    80000c98:	6985                	lui	s3,0x1
    80000c9a:	a02d                	j	80000cc4 <copyinstr+0x4e>
      n = max;

    char *p = (char *) (pa0 + (srcva - va0));
    while(n > 0){
      if(*p == '\0'){
        *dst = '\0';
    80000c9c:	00078023          	sb	zero,0(a5) # 1000 <_entry-0x7ffff000>
    80000ca0:	4785                	li	a5,1
      dst++;
    }

    srcva = va0 + PGSIZE;
  }
  if(got_null){
    80000ca2:	37fd                	addw	a5,a5,-1
    80000ca4:	0007851b          	sext.w	a0,a5
    return 0;
  } else {
    return -1;
  }
}
    80000ca8:	60a6                	ld	ra,72(sp)
    80000caa:	6406                	ld	s0,64(sp)
    80000cac:	74e2                	ld	s1,56(sp)
    80000cae:	7942                	ld	s2,48(sp)
    80000cb0:	79a2                	ld	s3,40(sp)
    80000cb2:	7a02                	ld	s4,32(sp)
    80000cb4:	6ae2                	ld	s5,24(sp)
    80000cb6:	6b42                	ld	s6,16(sp)
    80000cb8:	6ba2                	ld	s7,8(sp)
    80000cba:	6161                	add	sp,sp,80
    80000cbc:	8082                	ret
    srcva = va0 + PGSIZE;
    80000cbe:	01390bb3          	add	s7,s2,s3
  while(got_null == 0 && max > 0){
    80000cc2:	c8a9                	beqz	s1,80000d14 <copyinstr+0x9e>
    va0 = PGROUNDDOWN(srcva);
    80000cc4:	015bf933          	and	s2,s7,s5
    pa0 = walkaddr(pagetable, va0);
    80000cc8:	85ca                	mv	a1,s2
    80000cca:	8552                	mv	a0,s4
    80000ccc:	00000097          	auipc	ra,0x0
    80000cd0:	880080e7          	jalr	-1920(ra) # 8000054c <walkaddr>
    if(pa0 == 0)
    80000cd4:	c131                	beqz	a0,80000d18 <copyinstr+0xa2>
    n = PGSIZE - (srcva - va0);
    80000cd6:	417906b3          	sub	a3,s2,s7
    80000cda:	96ce                	add	a3,a3,s3
    80000cdc:	00d4f363          	bgeu	s1,a3,80000ce2 <copyinstr+0x6c>
    80000ce0:	86a6                	mv	a3,s1
    char *p = (char *) (pa0 + (srcva - va0));
    80000ce2:	955e                	add	a0,a0,s7
    80000ce4:	41250533          	sub	a0,a0,s2
    while(n > 0){
    80000ce8:	daf9                	beqz	a3,80000cbe <copyinstr+0x48>
    80000cea:	87da                	mv	a5,s6
    80000cec:	885a                	mv	a6,s6
      if(*p == '\0'){
    80000cee:	41650633          	sub	a2,a0,s6
    while(n > 0){
    80000cf2:	96da                	add	a3,a3,s6
    80000cf4:	85be                	mv	a1,a5
      if(*p == '\0'){
    80000cf6:	00f60733          	add	a4,a2,a5
    80000cfa:	00074703          	lbu	a4,0(a4) # fffffffffffff000 <end+0xffffffff7ffdcca0>
    80000cfe:	df59                	beqz	a4,80000c9c <copyinstr+0x26>
        *dst = *p;
    80000d00:	00e78023          	sb	a4,0(a5)
      dst++;
    80000d04:	0785                	add	a5,a5,1
    while(n > 0){
    80000d06:	fed797e3          	bne	a5,a3,80000cf4 <copyinstr+0x7e>
    80000d0a:	14fd                	add	s1,s1,-1
    80000d0c:	94c2                	add	s1,s1,a6
      --max;
    80000d0e:	8c8d                	sub	s1,s1,a1
      dst++;
    80000d10:	8b3e                	mv	s6,a5
    80000d12:	b775                	j	80000cbe <copyinstr+0x48>
    80000d14:	4781                	li	a5,0
    80000d16:	b771                	j	80000ca2 <copyinstr+0x2c>
      return -1;
    80000d18:	557d                	li	a0,-1
    80000d1a:	b779                	j	80000ca8 <copyinstr+0x32>
  int got_null = 0;
    80000d1c:	4781                	li	a5,0
  if(got_null){
    80000d1e:	37fd                	addw	a5,a5,-1
    80000d20:	0007851b          	sext.w	a0,a5
}
    80000d24:	8082                	ret

0000000080000d26 <printpte>:

void
printpte(pagetable_t pagetable, int idx, int depth)
{
    80000d26:	7139                	add	sp,sp,-64
    80000d28:	fc06                	sd	ra,56(sp)
    80000d2a:	f822                	sd	s0,48(sp)
    80000d2c:	f426                	sd	s1,40(sp)
    80000d2e:	f04a                	sd	s2,32(sp)
    80000d30:	ec4e                	sd	s3,24(sp)
    80000d32:	e852                	sd	s4,16(sp)
    80000d34:	e456                	sd	s5,8(sp)
    80000d36:	0080                	add	s0,sp,64
    80000d38:	8a2a                	mv	s4,a0
    80000d3a:	8aae                	mv	s5,a1
    80000d3c:	8932                	mv	s2,a2
  printf("..");
    80000d3e:	00007517          	auipc	a0,0x7
    80000d42:	41a50513          	add	a0,a0,1050 # 80008158 <etext+0x158>
    80000d46:	00005097          	auipc	ra,0x5
    80000d4a:	3e4080e7          	jalr	996(ra) # 8000612a <printf>
  for (int i = 0; i < depth; ++i)
    80000d4e:	01205f63          	blez	s2,80000d6c <printpte+0x46>
    80000d52:	4481                	li	s1,0
    printf(" ..");
    80000d54:	00007997          	auipc	s3,0x7
    80000d58:	40c98993          	add	s3,s3,1036 # 80008160 <etext+0x160>
    80000d5c:	854e                	mv	a0,s3
    80000d5e:	00005097          	auipc	ra,0x5
    80000d62:	3cc080e7          	jalr	972(ra) # 8000612a <printf>
  for (int i = 0; i < depth; ++i)
    80000d66:	2485                	addw	s1,s1,1
    80000d68:	fe991ae3          	bne	s2,s1,80000d5c <printpte+0x36>
  printf("%d: pte %p pa %p\n", idx, pagetable[idx], PTE2PA(pagetable[idx]));
    80000d6c:	003a9793          	sll	a5,s5,0x3
    80000d70:	9a3e                	add	s4,s4,a5
    80000d72:	000a3603          	ld	a2,0(s4)
    80000d76:	00a65693          	srl	a3,a2,0xa
    80000d7a:	06b2                	sll	a3,a3,0xc
    80000d7c:	85d6                	mv	a1,s5
    80000d7e:	00007517          	auipc	a0,0x7
    80000d82:	3ea50513          	add	a0,a0,1002 # 80008168 <etext+0x168>
    80000d86:	00005097          	auipc	ra,0x5
    80000d8a:	3a4080e7          	jalr	932(ra) # 8000612a <printf>
}
    80000d8e:	70e2                	ld	ra,56(sp)
    80000d90:	7442                	ld	s0,48(sp)
    80000d92:	74a2                	ld	s1,40(sp)
    80000d94:	7902                	ld	s2,32(sp)
    80000d96:	69e2                	ld	s3,24(sp)
    80000d98:	6a42                	ld	s4,16(sp)
    80000d9a:	6aa2                	ld	s5,8(sp)
    80000d9c:	6121                	add	sp,sp,64
    80000d9e:	8082                	ret

0000000080000da0 <vmprint_depth>:

void
vmprint_depth(pagetable_t pagetable, int depth)
{
    80000da0:	715d                	add	sp,sp,-80
    80000da2:	e486                	sd	ra,72(sp)
    80000da4:	e0a2                	sd	s0,64(sp)
    80000da6:	fc26                	sd	s1,56(sp)
    80000da8:	f84a                	sd	s2,48(sp)
    80000daa:	f44e                	sd	s3,40(sp)
    80000dac:	f052                	sd	s4,32(sp)
    80000dae:	ec56                	sd	s5,24(sp)
    80000db0:	e85a                	sd	s6,16(sp)
    80000db2:	e45e                	sd	s7,8(sp)
    80000db4:	0880                	add	s0,sp,80
    80000db6:	8b2a                	mv	s6,a0
    80000db8:	8bae                	mv	s7,a1
  // there are 2^9 = 512 PTEs in a page table.
  for(int i = 0; i < 512; i++){
    80000dba:	89aa                	mv	s3,a0
    80000dbc:	4901                	li	s2,0
    pte_t pte = pagetable[i];
    if((pte & PTE_V) && (pte & (PTE_R|PTE_W|PTE_X)) == 0){
    80000dbe:	4a85                	li	s5,1
  for(int i = 0; i < 512; i++){
    80000dc0:	20000a13          	li	s4,512
    80000dc4:	a02d                	j	80000dee <vmprint_depth+0x4e>
      // this PTE points to a lower-level page table.
      printpte(pagetable, i, depth);
    80000dc6:	865e                	mv	a2,s7
    80000dc8:	85ca                	mv	a1,s2
    80000dca:	855a                	mv	a0,s6
    80000dcc:	00000097          	auipc	ra,0x0
    80000dd0:	f5a080e7          	jalr	-166(ra) # 80000d26 <printpte>
      uint64 child = PTE2PA(pte);
    80000dd4:	80a9                	srl	s1,s1,0xa
      vmprint_depth((pagetable_t)child, depth+1);
    80000dd6:	001b859b          	addw	a1,s7,1 # fffffffffffff001 <end+0xffffffff7ffdcca1>
    80000dda:	00c49513          	sll	a0,s1,0xc
    80000dde:	00000097          	auipc	ra,0x0
    80000de2:	fc2080e7          	jalr	-62(ra) # 80000da0 <vmprint_depth>
  for(int i = 0; i < 512; i++){
    80000de6:	2905                	addw	s2,s2,1 # 1001 <_entry-0x7fffefff>
    80000de8:	09a1                	add	s3,s3,8
    80000dea:	03490263          	beq	s2,s4,80000e0e <vmprint_depth+0x6e>
    pte_t pte = pagetable[i];
    80000dee:	0009b483          	ld	s1,0(s3)
    if((pte & PTE_V) && (pte & (PTE_R|PTE_W|PTE_X)) == 0){
    80000df2:	00f4f793          	and	a5,s1,15
    80000df6:	fd5788e3          	beq	a5,s5,80000dc6 <vmprint_depth+0x26>
    } else if(pte & PTE_V){
    80000dfa:	8885                	and	s1,s1,1
    80000dfc:	d4ed                	beqz	s1,80000de6 <vmprint_depth+0x46>
      printpte(pagetable, i, depth);
    80000dfe:	865e                	mv	a2,s7
    80000e00:	85ca                	mv	a1,s2
    80000e02:	855a                	mv	a0,s6
    80000e04:	00000097          	auipc	ra,0x0
    80000e08:	f22080e7          	jalr	-222(ra) # 80000d26 <printpte>
    80000e0c:	bfe9                	j	80000de6 <vmprint_depth+0x46>
    }
  }
}
    80000e0e:	60a6                	ld	ra,72(sp)
    80000e10:	6406                	ld	s0,64(sp)
    80000e12:	74e2                	ld	s1,56(sp)
    80000e14:	7942                	ld	s2,48(sp)
    80000e16:	79a2                	ld	s3,40(sp)
    80000e18:	7a02                	ld	s4,32(sp)
    80000e1a:	6ae2                	ld	s5,24(sp)
    80000e1c:	6b42                	ld	s6,16(sp)
    80000e1e:	6ba2                	ld	s7,8(sp)
    80000e20:	6161                	add	sp,sp,80
    80000e22:	8082                	ret

0000000080000e24 <vmprint>:

void
vmprint(pagetable_t pagetable)
{
    80000e24:	1101                	add	sp,sp,-32
    80000e26:	ec06                	sd	ra,24(sp)
    80000e28:	e822                	sd	s0,16(sp)
    80000e2a:	e426                	sd	s1,8(sp)
    80000e2c:	1000                	add	s0,sp,32
    80000e2e:	84aa                	mv	s1,a0
  printf("page table %p\n", pagetable);
    80000e30:	85aa                	mv	a1,a0
    80000e32:	00007517          	auipc	a0,0x7
    80000e36:	34e50513          	add	a0,a0,846 # 80008180 <etext+0x180>
    80000e3a:	00005097          	auipc	ra,0x5
    80000e3e:	2f0080e7          	jalr	752(ra) # 8000612a <printf>
  vmprint_depth(pagetable, 0);
    80000e42:	4581                	li	a1,0
    80000e44:	8526                	mv	a0,s1
    80000e46:	00000097          	auipc	ra,0x0
    80000e4a:	f5a080e7          	jalr	-166(ra) # 80000da0 <vmprint_depth>
}
    80000e4e:	60e2                	ld	ra,24(sp)
    80000e50:	6442                	ld	s0,16(sp)
    80000e52:	64a2                	ld	s1,8(sp)
    80000e54:	6105                	add	sp,sp,32
    80000e56:	8082                	ret

0000000080000e58 <proc_mapstacks>:
// Allocate a page for each process's kernel stack.
// Map it high in memory, followed by an invalid
// guard page.
void
proc_mapstacks(pagetable_t kpgtbl)
{
    80000e58:	7139                	add	sp,sp,-64
    80000e5a:	fc06                	sd	ra,56(sp)
    80000e5c:	f822                	sd	s0,48(sp)
    80000e5e:	f426                	sd	s1,40(sp)
    80000e60:	f04a                	sd	s2,32(sp)
    80000e62:	ec4e                	sd	s3,24(sp)
    80000e64:	e852                	sd	s4,16(sp)
    80000e66:	e456                	sd	s5,8(sp)
    80000e68:	e05a                	sd	s6,0(sp)
    80000e6a:	0080                	add	s0,sp,64
    80000e6c:	89aa                	mv	s3,a0
  struct proc *p;
  
  for(p = proc; p < &proc[NPROC]; p++) {
    80000e6e:	00008497          	auipc	s1,0x8
    80000e72:	0ca48493          	add	s1,s1,202 # 80008f38 <proc>
    char *pa = kalloc();
    if(pa == 0)
      panic("kalloc");
    uint64 va = KSTACK((int) (p - proc));
    80000e76:	8b26                	mv	s6,s1
    80000e78:	00007a97          	auipc	s5,0x7
    80000e7c:	188a8a93          	add	s5,s5,392 # 80008000 <etext>
    80000e80:	01000937          	lui	s2,0x1000
    80000e84:	197d                	add	s2,s2,-1 # ffffff <_entry-0x7f000001>
    80000e86:	093a                	sll	s2,s2,0xe
  for(p = proc; p < &proc[NPROC]; p++) {
    80000e88:	0000ea17          	auipc	s4,0xe
    80000e8c:	eb0a0a13          	add	s4,s4,-336 # 8000ed38 <tickslock>
    char *pa = kalloc();
    80000e90:	fffff097          	auipc	ra,0xfffff
    80000e94:	2d4080e7          	jalr	724(ra) # 80000164 <kalloc>
    80000e98:	862a                	mv	a2,a0
    if(pa == 0)
    80000e9a:	c129                	beqz	a0,80000edc <proc_mapstacks+0x84>
    uint64 va = KSTACK((int) (p - proc));
    80000e9c:	416485b3          	sub	a1,s1,s6
    80000ea0:	858d                	sra	a1,a1,0x3
    80000ea2:	000ab783          	ld	a5,0(s5)
    80000ea6:	02f585b3          	mul	a1,a1,a5
    80000eaa:	00d5959b          	sllw	a1,a1,0xd
    kvmmap(kpgtbl, va, (uint64)pa, PGSIZE, PTE_R | PTE_W);
    80000eae:	4719                	li	a4,6
    80000eb0:	6685                	lui	a3,0x1
    80000eb2:	40b905b3          	sub	a1,s2,a1
    80000eb6:	854e                	mv	a0,s3
    80000eb8:	fffff097          	auipc	ra,0xfffff
    80000ebc:	776080e7          	jalr	1910(ra) # 8000062e <kvmmap>
  for(p = proc; p < &proc[NPROC]; p++) {
    80000ec0:	17848493          	add	s1,s1,376
    80000ec4:	fd4496e3          	bne	s1,s4,80000e90 <proc_mapstacks+0x38>
  }
}
    80000ec8:	70e2                	ld	ra,56(sp)
    80000eca:	7442                	ld	s0,48(sp)
    80000ecc:	74a2                	ld	s1,40(sp)
    80000ece:	7902                	ld	s2,32(sp)
    80000ed0:	69e2                	ld	s3,24(sp)
    80000ed2:	6a42                	ld	s4,16(sp)
    80000ed4:	6aa2                	ld	s5,8(sp)
    80000ed6:	6b02                	ld	s6,0(sp)
    80000ed8:	6121                	add	sp,sp,64
    80000eda:	8082                	ret
      panic("kalloc");
    80000edc:	00007517          	auipc	a0,0x7
    80000ee0:	2b450513          	add	a0,a0,692 # 80008190 <etext+0x190>
    80000ee4:	00005097          	auipc	ra,0x5
    80000ee8:	1fc080e7          	jalr	508(ra) # 800060e0 <panic>

0000000080000eec <procinit>:

// initialize the proc table.
void
procinit(void)
{
    80000eec:	7139                	add	sp,sp,-64
    80000eee:	fc06                	sd	ra,56(sp)
    80000ef0:	f822                	sd	s0,48(sp)
    80000ef2:	f426                	sd	s1,40(sp)
    80000ef4:	f04a                	sd	s2,32(sp)
    80000ef6:	ec4e                	sd	s3,24(sp)
    80000ef8:	e852                	sd	s4,16(sp)
    80000efa:	e456                	sd	s5,8(sp)
    80000efc:	e05a                	sd	s6,0(sp)
    80000efe:	0080                	add	s0,sp,64
  struct proc *p;
  
  initlock(&pid_lock, "nextpid");
    80000f00:	00007597          	auipc	a1,0x7
    80000f04:	29858593          	add	a1,a1,664 # 80008198 <etext+0x198>
    80000f08:	00008517          	auipc	a0,0x8
    80000f0c:	be850513          	add	a0,a0,-1048 # 80008af0 <pid_lock>
    80000f10:	00005097          	auipc	ra,0x5
    80000f14:	678080e7          	jalr	1656(ra) # 80006588 <initlock>
  initlock(&wait_lock, "wait_lock");
    80000f18:	00007597          	auipc	a1,0x7
    80000f1c:	28858593          	add	a1,a1,648 # 800081a0 <etext+0x1a0>
    80000f20:	00008517          	auipc	a0,0x8
    80000f24:	be850513          	add	a0,a0,-1048 # 80008b08 <wait_lock>
    80000f28:	00005097          	auipc	ra,0x5
    80000f2c:	660080e7          	jalr	1632(ra) # 80006588 <initlock>
  for(p = proc; p < &proc[NPROC]; p++) {
    80000f30:	00008497          	auipc	s1,0x8
    80000f34:	00848493          	add	s1,s1,8 # 80008f38 <proc>
      initlock(&p->lock, "proc");
    80000f38:	00007b17          	auipc	s6,0x7
    80000f3c:	278b0b13          	add	s6,s6,632 # 800081b0 <etext+0x1b0>
      p->state = UNUSED;
      p->kstack = KSTACK((int) (p - proc));
    80000f40:	8aa6                	mv	s5,s1
    80000f42:	00007a17          	auipc	s4,0x7
    80000f46:	0bea0a13          	add	s4,s4,190 # 80008000 <etext>
    80000f4a:	01000937          	lui	s2,0x1000
    80000f4e:	197d                	add	s2,s2,-1 # ffffff <_entry-0x7f000001>
    80000f50:	093a                	sll	s2,s2,0xe
  for(p = proc; p < &proc[NPROC]; p++) {
    80000f52:	0000e997          	auipc	s3,0xe
    80000f56:	de698993          	add	s3,s3,-538 # 8000ed38 <tickslock>
      initlock(&p->lock, "proc");
    80000f5a:	85da                	mv	a1,s6
    80000f5c:	8526                	mv	a0,s1
    80000f5e:	00005097          	auipc	ra,0x5
    80000f62:	62a080e7          	jalr	1578(ra) # 80006588 <initlock>
      p->state = UNUSED;
    80000f66:	0004ac23          	sw	zero,24(s1)
      p->kstack = KSTACK((int) (p - proc));
    80000f6a:	415487b3          	sub	a5,s1,s5
    80000f6e:	878d                	sra	a5,a5,0x3
    80000f70:	000a3703          	ld	a4,0(s4)
    80000f74:	02e787b3          	mul	a5,a5,a4
    80000f78:	00d7979b          	sllw	a5,a5,0xd
    80000f7c:	40f907b3          	sub	a5,s2,a5
    80000f80:	e0bc                	sd	a5,64(s1)
  for(p = proc; p < &proc[NPROC]; p++) {
    80000f82:	17848493          	add	s1,s1,376
    80000f86:	fd349ae3          	bne	s1,s3,80000f5a <procinit+0x6e>
  }
}
    80000f8a:	70e2                	ld	ra,56(sp)
    80000f8c:	7442                	ld	s0,48(sp)
    80000f8e:	74a2                	ld	s1,40(sp)
    80000f90:	7902                	ld	s2,32(sp)
    80000f92:	69e2                	ld	s3,24(sp)
    80000f94:	6a42                	ld	s4,16(sp)
    80000f96:	6aa2                	ld	s5,8(sp)
    80000f98:	6b02                	ld	s6,0(sp)
    80000f9a:	6121                	add	sp,sp,64
    80000f9c:	8082                	ret

0000000080000f9e <cpuid>:
// Must be called with interrupts disabled,
// to prevent race with process being moved
// to a different CPU.
int
cpuid()
{
    80000f9e:	1141                	add	sp,sp,-16
    80000fa0:	e422                	sd	s0,8(sp)
    80000fa2:	0800                	add	s0,sp,16
  asm volatile("mv %0, tp" : "=r" (x) );
    80000fa4:	8512                	mv	a0,tp
  int id = r_tp();
  return id;
}
    80000fa6:	2501                	sext.w	a0,a0
    80000fa8:	6422                	ld	s0,8(sp)
    80000faa:	0141                	add	sp,sp,16
    80000fac:	8082                	ret

0000000080000fae <mycpu>:

// Return this CPU's cpu struct.
// Interrupts must be disabled.
struct cpu*
mycpu(void)
{
    80000fae:	1141                	add	sp,sp,-16
    80000fb0:	e422                	sd	s0,8(sp)
    80000fb2:	0800                	add	s0,sp,16
    80000fb4:	8792                	mv	a5,tp
  int id = cpuid();
  struct cpu *c = &cpus[id];
    80000fb6:	2781                	sext.w	a5,a5
    80000fb8:	079e                	sll	a5,a5,0x7
  return c;
}
    80000fba:	00008517          	auipc	a0,0x8
    80000fbe:	b6650513          	add	a0,a0,-1178 # 80008b20 <cpus>
    80000fc2:	953e                	add	a0,a0,a5
    80000fc4:	6422                	ld	s0,8(sp)
    80000fc6:	0141                	add	sp,sp,16
    80000fc8:	8082                	ret

0000000080000fca <myproc>:

// Return the current struct proc *, or zero if none.
struct proc*
myproc(void)
{
    80000fca:	1101                	add	sp,sp,-32
    80000fcc:	ec06                	sd	ra,24(sp)
    80000fce:	e822                	sd	s0,16(sp)
    80000fd0:	e426                	sd	s1,8(sp)
    80000fd2:	1000                	add	s0,sp,32
  push_off();
    80000fd4:	00005097          	auipc	ra,0x5
    80000fd8:	5f8080e7          	jalr	1528(ra) # 800065cc <push_off>
    80000fdc:	8792                	mv	a5,tp
  struct cpu *c = mycpu();
  struct proc *p = c->proc;
    80000fde:	2781                	sext.w	a5,a5
    80000fe0:	079e                	sll	a5,a5,0x7
    80000fe2:	00008717          	auipc	a4,0x8
    80000fe6:	b0e70713          	add	a4,a4,-1266 # 80008af0 <pid_lock>
    80000fea:	97ba                	add	a5,a5,a4
    80000fec:	7b84                	ld	s1,48(a5)
  pop_off();
    80000fee:	00005097          	auipc	ra,0x5
    80000ff2:	67e080e7          	jalr	1662(ra) # 8000666c <pop_off>
  return p;
}
    80000ff6:	8526                	mv	a0,s1
    80000ff8:	60e2                	ld	ra,24(sp)
    80000ffa:	6442                	ld	s0,16(sp)
    80000ffc:	64a2                	ld	s1,8(sp)
    80000ffe:	6105                	add	sp,sp,32
    80001000:	8082                	ret

0000000080001002 <forkret>:

// A fork child's very first scheduling by scheduler()
// will swtch to forkret.
void
forkret(void)
{
    80001002:	1141                	add	sp,sp,-16
    80001004:	e406                	sd	ra,8(sp)
    80001006:	e022                	sd	s0,0(sp)
    80001008:	0800                	add	s0,sp,16
  static int first = 1;

  // Still holding p->lock from scheduler.
  release(&myproc()->lock);
    8000100a:	00000097          	auipc	ra,0x0
    8000100e:	fc0080e7          	jalr	-64(ra) # 80000fca <myproc>
    80001012:	00005097          	auipc	ra,0x5
    80001016:	6ba080e7          	jalr	1722(ra) # 800066cc <release>

  if (first) {
    8000101a:	00008797          	auipc	a5,0x8
    8000101e:	a267a783          	lw	a5,-1498(a5) # 80008a40 <first.1>
    80001022:	eb89                	bnez	a5,80001034 <forkret+0x32>
    // be run from main().
    first = 0;
    fsinit(ROOTDEV);
  }

  usertrapret();
    80001024:	00001097          	auipc	ra,0x1
    80001028:	e06080e7          	jalr	-506(ra) # 80001e2a <usertrapret>
}
    8000102c:	60a2                	ld	ra,8(sp)
    8000102e:	6402                	ld	s0,0(sp)
    80001030:	0141                	add	sp,sp,16
    80001032:	8082                	ret
    first = 0;
    80001034:	00008797          	auipc	a5,0x8
    80001038:	a007a623          	sw	zero,-1524(a5) # 80008a40 <first.1>
    fsinit(ROOTDEV);
    8000103c:	4505                	li	a0,1
    8000103e:	00002097          	auipc	ra,0x2
    80001042:	d20080e7          	jalr	-736(ra) # 80002d5e <fsinit>
    80001046:	bff9                	j	80001024 <forkret+0x22>

0000000080001048 <allocpid>:
{
    80001048:	1101                	add	sp,sp,-32
    8000104a:	ec06                	sd	ra,24(sp)
    8000104c:	e822                	sd	s0,16(sp)
    8000104e:	e426                	sd	s1,8(sp)
    80001050:	e04a                	sd	s2,0(sp)
    80001052:	1000                	add	s0,sp,32
  acquire(&pid_lock);
    80001054:	00008917          	auipc	s2,0x8
    80001058:	a9c90913          	add	s2,s2,-1380 # 80008af0 <pid_lock>
    8000105c:	854a                	mv	a0,s2
    8000105e:	00005097          	auipc	ra,0x5
    80001062:	5ba080e7          	jalr	1466(ra) # 80006618 <acquire>
  pid = nextpid;
    80001066:	00008797          	auipc	a5,0x8
    8000106a:	9de78793          	add	a5,a5,-1570 # 80008a44 <nextpid>
    8000106e:	4384                	lw	s1,0(a5)
  nextpid = nextpid + 1;
    80001070:	0014871b          	addw	a4,s1,1
    80001074:	c398                	sw	a4,0(a5)
  release(&pid_lock);
    80001076:	854a                	mv	a0,s2
    80001078:	00005097          	auipc	ra,0x5
    8000107c:	654080e7          	jalr	1620(ra) # 800066cc <release>
}
    80001080:	8526                	mv	a0,s1
    80001082:	60e2                	ld	ra,24(sp)
    80001084:	6442                	ld	s0,16(sp)
    80001086:	64a2                	ld	s1,8(sp)
    80001088:	6902                	ld	s2,0(sp)
    8000108a:	6105                	add	sp,sp,32
    8000108c:	8082                	ret

000000008000108e <proc_pagetable>:
{
    8000108e:	1101                	add	sp,sp,-32
    80001090:	ec06                	sd	ra,24(sp)
    80001092:	e822                	sd	s0,16(sp)
    80001094:	e426                	sd	s1,8(sp)
    80001096:	e04a                	sd	s2,0(sp)
    80001098:	1000                	add	s0,sp,32
    8000109a:	892a                	mv	s2,a0
  pagetable = uvmcreate();
    8000109c:	fffff097          	auipc	ra,0xfffff
    800010a0:	77c080e7          	jalr	1916(ra) # 80000818 <uvmcreate>
    800010a4:	84aa                	mv	s1,a0
  if(pagetable == 0)
    800010a6:	cd39                	beqz	a0,80001104 <proc_pagetable+0x76>
  if(mappages(pagetable, TRAMPOLINE, PGSIZE,
    800010a8:	4729                	li	a4,10
    800010aa:	00006697          	auipc	a3,0x6
    800010ae:	f5668693          	add	a3,a3,-170 # 80007000 <_trampoline>
    800010b2:	6605                	lui	a2,0x1
    800010b4:	040005b7          	lui	a1,0x4000
    800010b8:	15fd                	add	a1,a1,-1 # 3ffffff <_entry-0x7c000001>
    800010ba:	05b2                	sll	a1,a1,0xc
    800010bc:	fffff097          	auipc	ra,0xfffff
    800010c0:	4d2080e7          	jalr	1234(ra) # 8000058e <mappages>
    800010c4:	04054763          	bltz	a0,80001112 <proc_pagetable+0x84>
  if(mappages(pagetable, TRAPFRAME, PGSIZE,
    800010c8:	4719                	li	a4,6
    800010ca:	06093683          	ld	a3,96(s2)
    800010ce:	6605                	lui	a2,0x1
    800010d0:	020005b7          	lui	a1,0x2000
    800010d4:	15fd                	add	a1,a1,-1 # 1ffffff <_entry-0x7e000001>
    800010d6:	05b6                	sll	a1,a1,0xd
    800010d8:	8526                	mv	a0,s1
    800010da:	fffff097          	auipc	ra,0xfffff
    800010de:	4b4080e7          	jalr	1204(ra) # 8000058e <mappages>
    800010e2:	04054063          	bltz	a0,80001122 <proc_pagetable+0x94>
  if(mappages(pagetable, USYSCALL, PGSIZE,
    800010e6:	4749                	li	a4,18
    800010e8:	05893683          	ld	a3,88(s2)
    800010ec:	6605                	lui	a2,0x1
    800010ee:	040005b7          	lui	a1,0x4000
    800010f2:	15f5                	add	a1,a1,-3 # 3fffffd <_entry-0x7c000003>
    800010f4:	05b2                	sll	a1,a1,0xc
    800010f6:	8526                	mv	a0,s1
    800010f8:	fffff097          	auipc	ra,0xfffff
    800010fc:	496080e7          	jalr	1174(ra) # 8000058e <mappages>
    80001100:	04054463          	bltz	a0,80001148 <proc_pagetable+0xba>
}
    80001104:	8526                	mv	a0,s1
    80001106:	60e2                	ld	ra,24(sp)
    80001108:	6442                	ld	s0,16(sp)
    8000110a:	64a2                	ld	s1,8(sp)
    8000110c:	6902                	ld	s2,0(sp)
    8000110e:	6105                	add	sp,sp,32
    80001110:	8082                	ret
    uvmfree(pagetable, 0);
    80001112:	4581                	li	a1,0
    80001114:	8526                	mv	a0,s1
    80001116:	00000097          	auipc	ra,0x0
    8000111a:	908080e7          	jalr	-1784(ra) # 80000a1e <uvmfree>
    return 0;
    8000111e:	4481                	li	s1,0
    80001120:	b7d5                	j	80001104 <proc_pagetable+0x76>
    uvmunmap(pagetable, TRAMPOLINE, 1, 0);
    80001122:	4681                	li	a3,0
    80001124:	4605                	li	a2,1
    80001126:	040005b7          	lui	a1,0x4000
    8000112a:	15fd                	add	a1,a1,-1 # 3ffffff <_entry-0x7c000001>
    8000112c:	05b2                	sll	a1,a1,0xc
    8000112e:	8526                	mv	a0,s1
    80001130:	fffff097          	auipc	ra,0xfffff
    80001134:	624080e7          	jalr	1572(ra) # 80000754 <uvmunmap>
    uvmfree(pagetable, 0);
    80001138:	4581                	li	a1,0
    8000113a:	8526                	mv	a0,s1
    8000113c:	00000097          	auipc	ra,0x0
    80001140:	8e2080e7          	jalr	-1822(ra) # 80000a1e <uvmfree>
    return 0;
    80001144:	4481                	li	s1,0
    80001146:	bf7d                	j	80001104 <proc_pagetable+0x76>
    uvmunmap(pagetable, TRAMPOLINE, 1, 0);
    80001148:	4681                	li	a3,0
    8000114a:	4605                	li	a2,1
    8000114c:	040005b7          	lui	a1,0x4000
    80001150:	15fd                	add	a1,a1,-1 # 3ffffff <_entry-0x7c000001>
    80001152:	05b2                	sll	a1,a1,0xc
    80001154:	8526                	mv	a0,s1
    80001156:	fffff097          	auipc	ra,0xfffff
    8000115a:	5fe080e7          	jalr	1534(ra) # 80000754 <uvmunmap>
    uvmunmap(pagetable, TRAPFRAME, 1, 0);
    8000115e:	4681                	li	a3,0
    80001160:	4605                	li	a2,1
    80001162:	020005b7          	lui	a1,0x2000
    80001166:	15fd                	add	a1,a1,-1 # 1ffffff <_entry-0x7e000001>
    80001168:	05b6                	sll	a1,a1,0xd
    8000116a:	8526                	mv	a0,s1
    8000116c:	fffff097          	auipc	ra,0xfffff
    80001170:	5e8080e7          	jalr	1512(ra) # 80000754 <uvmunmap>
    uvmfree(pagetable, 0);
    80001174:	4581                	li	a1,0
    80001176:	8526                	mv	a0,s1
    80001178:	00000097          	auipc	ra,0x0
    8000117c:	8a6080e7          	jalr	-1882(ra) # 80000a1e <uvmfree>
    80001180:	b751                	j	80001104 <proc_pagetable+0x76>

0000000080001182 <proc_freepagetable>:
{
    80001182:	7179                	add	sp,sp,-48
    80001184:	f406                	sd	ra,40(sp)
    80001186:	f022                	sd	s0,32(sp)
    80001188:	ec26                	sd	s1,24(sp)
    8000118a:	e84a                	sd	s2,16(sp)
    8000118c:	e44e                	sd	s3,8(sp)
    8000118e:	1800                	add	s0,sp,48
    80001190:	84aa                	mv	s1,a0
    80001192:	89ae                	mv	s3,a1
  uvmunmap(pagetable, TRAMPOLINE, 1, 0);
    80001194:	4681                	li	a3,0
    80001196:	4605                	li	a2,1
    80001198:	04000937          	lui	s2,0x4000
    8000119c:	fff90593          	add	a1,s2,-1 # 3ffffff <_entry-0x7c000001>
    800011a0:	05b2                	sll	a1,a1,0xc
    800011a2:	fffff097          	auipc	ra,0xfffff
    800011a6:	5b2080e7          	jalr	1458(ra) # 80000754 <uvmunmap>
  uvmunmap(pagetable, TRAPFRAME, 1, 0);
    800011aa:	4681                	li	a3,0
    800011ac:	4605                	li	a2,1
    800011ae:	020005b7          	lui	a1,0x2000
    800011b2:	15fd                	add	a1,a1,-1 # 1ffffff <_entry-0x7e000001>
    800011b4:	05b6                	sll	a1,a1,0xd
    800011b6:	8526                	mv	a0,s1
    800011b8:	fffff097          	auipc	ra,0xfffff
    800011bc:	59c080e7          	jalr	1436(ra) # 80000754 <uvmunmap>
  uvmunmap(pagetable, USYSCALL, 1, 0);
    800011c0:	4681                	li	a3,0
    800011c2:	4605                	li	a2,1
    800011c4:	1975                	add	s2,s2,-3
    800011c6:	00c91593          	sll	a1,s2,0xc
    800011ca:	8526                	mv	a0,s1
    800011cc:	fffff097          	auipc	ra,0xfffff
    800011d0:	588080e7          	jalr	1416(ra) # 80000754 <uvmunmap>
  uvmfree(pagetable, sz);
    800011d4:	85ce                	mv	a1,s3
    800011d6:	8526                	mv	a0,s1
    800011d8:	00000097          	auipc	ra,0x0
    800011dc:	846080e7          	jalr	-1978(ra) # 80000a1e <uvmfree>
}
    800011e0:	70a2                	ld	ra,40(sp)
    800011e2:	7402                	ld	s0,32(sp)
    800011e4:	64e2                	ld	s1,24(sp)
    800011e6:	6942                	ld	s2,16(sp)
    800011e8:	69a2                	ld	s3,8(sp)
    800011ea:	6145                	add	sp,sp,48
    800011ec:	8082                	ret

00000000800011ee <freeproc>:
{
    800011ee:	1101                	add	sp,sp,-32
    800011f0:	ec06                	sd	ra,24(sp)
    800011f2:	e822                	sd	s0,16(sp)
    800011f4:	e426                	sd	s1,8(sp)
    800011f6:	1000                	add	s0,sp,32
    800011f8:	84aa                	mv	s1,a0
  if(p->shareddata)
    800011fa:	6d28                	ld	a0,88(a0)
    800011fc:	c509                	beqz	a0,80001206 <freeproc+0x18>
    kfree((void*)p->shareddata);
    800011fe:	fffff097          	auipc	ra,0xfffff
    80001202:	e1e080e7          	jalr	-482(ra) # 8000001c <kfree>
  p->shareddata = 0;
    80001206:	0404bc23          	sd	zero,88(s1)
  if(p->trapframe)
    8000120a:	70a8                	ld	a0,96(s1)
    8000120c:	c509                	beqz	a0,80001216 <freeproc+0x28>
    kfree((void*)p->trapframe);
    8000120e:	fffff097          	auipc	ra,0xfffff
    80001212:	e0e080e7          	jalr	-498(ra) # 8000001c <kfree>
  p->trapframe = 0;
    80001216:	0604b023          	sd	zero,96(s1)
  if(p->pagetable)
    8000121a:	68a8                	ld	a0,80(s1)
    8000121c:	c511                	beqz	a0,80001228 <freeproc+0x3a>
    proc_freepagetable(p->pagetable, p->sz);
    8000121e:	64ac                	ld	a1,72(s1)
    80001220:	00000097          	auipc	ra,0x0
    80001224:	f62080e7          	jalr	-158(ra) # 80001182 <proc_freepagetable>
  p->pagetable = 0;
    80001228:	0404b823          	sd	zero,80(s1)
  p->sz = 0;
    8000122c:	0404b423          	sd	zero,72(s1)
  p->pid = 0;
    80001230:	0204a823          	sw	zero,48(s1)
  p->parent = 0;
    80001234:	0204bc23          	sd	zero,56(s1)
  p->name[0] = 0;
    80001238:	16048023          	sb	zero,352(s1)
  p->chan = 0;
    8000123c:	0204b023          	sd	zero,32(s1)
  p->killed = 0;
    80001240:	0204a423          	sw	zero,40(s1)
  p->xstate = 0;
    80001244:	0204a623          	sw	zero,44(s1)
  p->state = UNUSED;
    80001248:	0004ac23          	sw	zero,24(s1)
}
    8000124c:	60e2                	ld	ra,24(sp)
    8000124e:	6442                	ld	s0,16(sp)
    80001250:	64a2                	ld	s1,8(sp)
    80001252:	6105                	add	sp,sp,32
    80001254:	8082                	ret

0000000080001256 <allocproc>:
{
    80001256:	1101                	add	sp,sp,-32
    80001258:	ec06                	sd	ra,24(sp)
    8000125a:	e822                	sd	s0,16(sp)
    8000125c:	e426                	sd	s1,8(sp)
    8000125e:	e04a                	sd	s2,0(sp)
    80001260:	1000                	add	s0,sp,32
  for(p = proc; p < &proc[NPROC]; p++) {
    80001262:	00008497          	auipc	s1,0x8
    80001266:	cd648493          	add	s1,s1,-810 # 80008f38 <proc>
    8000126a:	0000e917          	auipc	s2,0xe
    8000126e:	ace90913          	add	s2,s2,-1330 # 8000ed38 <tickslock>
    acquire(&p->lock);
    80001272:	8526                	mv	a0,s1
    80001274:	00005097          	auipc	ra,0x5
    80001278:	3a4080e7          	jalr	932(ra) # 80006618 <acquire>
    if(p->state == UNUSED) {
    8000127c:	4c9c                	lw	a5,24(s1)
    8000127e:	cf81                	beqz	a5,80001296 <allocproc+0x40>
      release(&p->lock);
    80001280:	8526                	mv	a0,s1
    80001282:	00005097          	auipc	ra,0x5
    80001286:	44a080e7          	jalr	1098(ra) # 800066cc <release>
  for(p = proc; p < &proc[NPROC]; p++) {
    8000128a:	17848493          	add	s1,s1,376
    8000128e:	ff2492e3          	bne	s1,s2,80001272 <allocproc+0x1c>
  return 0;
    80001292:	4481                	li	s1,0
    80001294:	a09d                	j	800012fa <allocproc+0xa4>
  p->pid = allocpid();
    80001296:	00000097          	auipc	ra,0x0
    8000129a:	db2080e7          	jalr	-590(ra) # 80001048 <allocpid>
    8000129e:	d888                	sw	a0,48(s1)
  p->state = USED;
    800012a0:	4785                	li	a5,1
    800012a2:	cc9c                	sw	a5,24(s1)
  if((p->trapframe = (struct trapframe *)kalloc()) == 0){
    800012a4:	fffff097          	auipc	ra,0xfffff
    800012a8:	ec0080e7          	jalr	-320(ra) # 80000164 <kalloc>
    800012ac:	892a                	mv	s2,a0
    800012ae:	f0a8                	sd	a0,96(s1)
    800012b0:	cd21                	beqz	a0,80001308 <allocproc+0xb2>
  if((p->shareddata = (struct usyscall *)kalloc()) == 0){
    800012b2:	fffff097          	auipc	ra,0xfffff
    800012b6:	eb2080e7          	jalr	-334(ra) # 80000164 <kalloc>
    800012ba:	892a                	mv	s2,a0
    800012bc:	eca8                	sd	a0,88(s1)
    800012be:	c12d                	beqz	a0,80001320 <allocproc+0xca>
  p->pagetable = proc_pagetable(p);
    800012c0:	8526                	mv	a0,s1
    800012c2:	00000097          	auipc	ra,0x0
    800012c6:	dcc080e7          	jalr	-564(ra) # 8000108e <proc_pagetable>
    800012ca:	892a                	mv	s2,a0
    800012cc:	e8a8                	sd	a0,80(s1)
  if(p->pagetable == 0){
    800012ce:	c52d                	beqz	a0,80001338 <allocproc+0xe2>
  p->priority = 5;
    800012d0:	4795                	li	a5,5
    800012d2:	16f4aa23          	sw	a5,372(s1)
  memset(&p->context, 0, sizeof(p->context));
    800012d6:	07000613          	li	a2,112
    800012da:	4581                	li	a1,0
    800012dc:	06848513          	add	a0,s1,104
    800012e0:	fffff097          	auipc	ra,0xfffff
    800012e4:	ee4080e7          	jalr	-284(ra) # 800001c4 <memset>
  p->context.ra = (uint64)forkret;
    800012e8:	00000797          	auipc	a5,0x0
    800012ec:	d1a78793          	add	a5,a5,-742 # 80001002 <forkret>
    800012f0:	f4bc                	sd	a5,104(s1)
  p->context.sp = p->kstack + PGSIZE;
    800012f2:	60bc                	ld	a5,64(s1)
    800012f4:	6705                	lui	a4,0x1
    800012f6:	97ba                	add	a5,a5,a4
    800012f8:	f8bc                	sd	a5,112(s1)
}
    800012fa:	8526                	mv	a0,s1
    800012fc:	60e2                	ld	ra,24(sp)
    800012fe:	6442                	ld	s0,16(sp)
    80001300:	64a2                	ld	s1,8(sp)
    80001302:	6902                	ld	s2,0(sp)
    80001304:	6105                	add	sp,sp,32
    80001306:	8082                	ret
    freeproc(p);
    80001308:	8526                	mv	a0,s1
    8000130a:	00000097          	auipc	ra,0x0
    8000130e:	ee4080e7          	jalr	-284(ra) # 800011ee <freeproc>
    release(&p->lock);
    80001312:	8526                	mv	a0,s1
    80001314:	00005097          	auipc	ra,0x5
    80001318:	3b8080e7          	jalr	952(ra) # 800066cc <release>
    return 0;
    8000131c:	84ca                	mv	s1,s2
    8000131e:	bff1                	j	800012fa <allocproc+0xa4>
    freeproc(p);
    80001320:	8526                	mv	a0,s1
    80001322:	00000097          	auipc	ra,0x0
    80001326:	ecc080e7          	jalr	-308(ra) # 800011ee <freeproc>
    release(&p->lock);
    8000132a:	8526                	mv	a0,s1
    8000132c:	00005097          	auipc	ra,0x5
    80001330:	3a0080e7          	jalr	928(ra) # 800066cc <release>
    return 0;
    80001334:	84ca                	mv	s1,s2
    80001336:	b7d1                	j	800012fa <allocproc+0xa4>
    freeproc(p);
    80001338:	8526                	mv	a0,s1
    8000133a:	00000097          	auipc	ra,0x0
    8000133e:	eb4080e7          	jalr	-332(ra) # 800011ee <freeproc>
    release(&p->lock);
    80001342:	8526                	mv	a0,s1
    80001344:	00005097          	auipc	ra,0x5
    80001348:	388080e7          	jalr	904(ra) # 800066cc <release>
    return 0;
    8000134c:	84ca                	mv	s1,s2
    8000134e:	b775                	j	800012fa <allocproc+0xa4>

0000000080001350 <userinit>:
{
    80001350:	1101                	add	sp,sp,-32
    80001352:	ec06                	sd	ra,24(sp)
    80001354:	e822                	sd	s0,16(sp)
    80001356:	e426                	sd	s1,8(sp)
    80001358:	1000                	add	s0,sp,32
  p = allocproc();
    8000135a:	00000097          	auipc	ra,0x0
    8000135e:	efc080e7          	jalr	-260(ra) # 80001256 <allocproc>
    80001362:	84aa                	mv	s1,a0
  initproc = p;
    80001364:	00007797          	auipc	a5,0x7
    80001368:	72a7be23          	sd	a0,1852(a5) # 80008aa0 <initproc>
  uvmfirst(p->pagetable, initcode, sizeof(initcode));
    8000136c:	03400613          	li	a2,52
    80001370:	00007597          	auipc	a1,0x7
    80001374:	6e058593          	add	a1,a1,1760 # 80008a50 <initcode>
    80001378:	6928                	ld	a0,80(a0)
    8000137a:	fffff097          	auipc	ra,0xfffff
    8000137e:	4cc080e7          	jalr	1228(ra) # 80000846 <uvmfirst>
  p->sz = PGSIZE;
    80001382:	6785                	lui	a5,0x1
    80001384:	e4bc                	sd	a5,72(s1)
  p->trapframe->epc = 0;      // user program counter
    80001386:	70b8                	ld	a4,96(s1)
    80001388:	00073c23          	sd	zero,24(a4) # 1018 <_entry-0x7fffefe8>
  p->trapframe->sp = PGSIZE;  // user stack pointer
    8000138c:	70b8                	ld	a4,96(s1)
    8000138e:	fb1c                	sd	a5,48(a4)
  safestrcpy(p->name, "initcode", sizeof(p->name));
    80001390:	4641                	li	a2,16
    80001392:	00007597          	auipc	a1,0x7
    80001396:	e2658593          	add	a1,a1,-474 # 800081b8 <etext+0x1b8>
    8000139a:	16048513          	add	a0,s1,352
    8000139e:	fffff097          	auipc	ra,0xfffff
    800013a2:	f6e080e7          	jalr	-146(ra) # 8000030c <safestrcpy>
  p->cwd = namei("/");
    800013a6:	00007517          	auipc	a0,0x7
    800013aa:	e2250513          	add	a0,a0,-478 # 800081c8 <etext+0x1c8>
    800013ae:	00002097          	auipc	ra,0x2
    800013b2:	3ce080e7          	jalr	974(ra) # 8000377c <namei>
    800013b6:	14a4bc23          	sd	a0,344(s1)
  p->state = RUNNABLE;
    800013ba:	478d                	li	a5,3
    800013bc:	cc9c                	sw	a5,24(s1)
  release(&p->lock);
    800013be:	8526                	mv	a0,s1
    800013c0:	00005097          	auipc	ra,0x5
    800013c4:	30c080e7          	jalr	780(ra) # 800066cc <release>
}
    800013c8:	60e2                	ld	ra,24(sp)
    800013ca:	6442                	ld	s0,16(sp)
    800013cc:	64a2                	ld	s1,8(sp)
    800013ce:	6105                	add	sp,sp,32
    800013d0:	8082                	ret

00000000800013d2 <growproc>:
{
    800013d2:	1101                	add	sp,sp,-32
    800013d4:	ec06                	sd	ra,24(sp)
    800013d6:	e822                	sd	s0,16(sp)
    800013d8:	e426                	sd	s1,8(sp)
    800013da:	e04a                	sd	s2,0(sp)
    800013dc:	1000                	add	s0,sp,32
    800013de:	892a                	mv	s2,a0
  struct proc *p = myproc();
    800013e0:	00000097          	auipc	ra,0x0
    800013e4:	bea080e7          	jalr	-1046(ra) # 80000fca <myproc>
    800013e8:	84aa                	mv	s1,a0
  sz = p->sz;
    800013ea:	652c                	ld	a1,72(a0)
  if(n > 0){
    800013ec:	01204c63          	bgtz	s2,80001404 <growproc+0x32>
  } else if(n < 0){
    800013f0:	02094663          	bltz	s2,8000141c <growproc+0x4a>
  p->sz = sz;
    800013f4:	e4ac                	sd	a1,72(s1)
  return 0;
    800013f6:	4501                	li	a0,0
}
    800013f8:	60e2                	ld	ra,24(sp)
    800013fa:	6442                	ld	s0,16(sp)
    800013fc:	64a2                	ld	s1,8(sp)
    800013fe:	6902                	ld	s2,0(sp)
    80001400:	6105                	add	sp,sp,32
    80001402:	8082                	ret
    if((sz = uvmalloc(p->pagetable, sz, sz + n, PTE_W)) == 0) {
    80001404:	4691                	li	a3,4
    80001406:	00b90633          	add	a2,s2,a1
    8000140a:	6928                	ld	a0,80(a0)
    8000140c:	fffff097          	auipc	ra,0xfffff
    80001410:	4f4080e7          	jalr	1268(ra) # 80000900 <uvmalloc>
    80001414:	85aa                	mv	a1,a0
    80001416:	fd79                	bnez	a0,800013f4 <growproc+0x22>
      return -1;
    80001418:	557d                	li	a0,-1
    8000141a:	bff9                	j	800013f8 <growproc+0x26>
    sz = uvmdealloc(p->pagetable, sz, sz + n);
    8000141c:	00b90633          	add	a2,s2,a1
    80001420:	6928                	ld	a0,80(a0)
    80001422:	fffff097          	auipc	ra,0xfffff
    80001426:	496080e7          	jalr	1174(ra) # 800008b8 <uvmdealloc>
    8000142a:	85aa                	mv	a1,a0
    8000142c:	b7e1                	j	800013f4 <growproc+0x22>

000000008000142e <fork>:
{
    8000142e:	7139                	add	sp,sp,-64
    80001430:	fc06                	sd	ra,56(sp)
    80001432:	f822                	sd	s0,48(sp)
    80001434:	f426                	sd	s1,40(sp)
    80001436:	f04a                	sd	s2,32(sp)
    80001438:	ec4e                	sd	s3,24(sp)
    8000143a:	e852                	sd	s4,16(sp)
    8000143c:	e456                	sd	s5,8(sp)
    8000143e:	0080                	add	s0,sp,64
  struct proc *p = myproc();
    80001440:	00000097          	auipc	ra,0x0
    80001444:	b8a080e7          	jalr	-1142(ra) # 80000fca <myproc>
    80001448:	8aaa                	mv	s5,a0
  if((np = allocproc()) == 0){
    8000144a:	00000097          	auipc	ra,0x0
    8000144e:	e0c080e7          	jalr	-500(ra) # 80001256 <allocproc>
    80001452:	12050963          	beqz	a0,80001584 <fork+0x156>
    80001456:	89aa                	mv	s3,a0
  if(uvmcopy(p->pagetable, np->pagetable, p->sz) < 0){
    80001458:	048ab603          	ld	a2,72(s5)
    8000145c:	692c                	ld	a1,80(a0)
    8000145e:	050ab503          	ld	a0,80(s5)
    80001462:	fffff097          	auipc	ra,0xfffff
    80001466:	5f6080e7          	jalr	1526(ra) # 80000a58 <uvmcopy>
    8000146a:	06054563          	bltz	a0,800014d4 <fork+0xa6>
  np->sz = p->sz;
    8000146e:	048ab783          	ld	a5,72(s5)
    80001472:	04f9b423          	sd	a5,72(s3)
  np->tracemask = p->tracemask;
    80001476:	170aa783          	lw	a5,368(s5)
    8000147a:	16f9a823          	sw	a5,368(s3)
  np->shareddata->pid = np->pid;
    8000147e:	0589b783          	ld	a5,88(s3)
    80001482:	0309a703          	lw	a4,48(s3)
    80001486:	c398                	sw	a4,0(a5)
  np->priority = p->priority;
    80001488:	174aa783          	lw	a5,372(s5)
    8000148c:	16f9aa23          	sw	a5,372(s3)
  *(np->trapframe) = *(p->trapframe);
    80001490:	060ab683          	ld	a3,96(s5)
    80001494:	87b6                	mv	a5,a3
    80001496:	0609b703          	ld	a4,96(s3)
    8000149a:	12068693          	add	a3,a3,288
    8000149e:	0007b803          	ld	a6,0(a5) # 1000 <_entry-0x7ffff000>
    800014a2:	6788                	ld	a0,8(a5)
    800014a4:	6b8c                	ld	a1,16(a5)
    800014a6:	6f90                	ld	a2,24(a5)
    800014a8:	01073023          	sd	a6,0(a4)
    800014ac:	e708                	sd	a0,8(a4)
    800014ae:	eb0c                	sd	a1,16(a4)
    800014b0:	ef10                	sd	a2,24(a4)
    800014b2:	02078793          	add	a5,a5,32
    800014b6:	02070713          	add	a4,a4,32
    800014ba:	fed792e3          	bne	a5,a3,8000149e <fork+0x70>
  np->trapframe->a0 = 0;
    800014be:	0609b783          	ld	a5,96(s3)
    800014c2:	0607b823          	sd	zero,112(a5)
  for(i = 0; i < NOFILE; i++)
    800014c6:	0d8a8493          	add	s1,s5,216
    800014ca:	0d898913          	add	s2,s3,216
    800014ce:	158a8a13          	add	s4,s5,344
    800014d2:	a00d                	j	800014f4 <fork+0xc6>
    freeproc(np);
    800014d4:	854e                	mv	a0,s3
    800014d6:	00000097          	auipc	ra,0x0
    800014da:	d18080e7          	jalr	-744(ra) # 800011ee <freeproc>
    release(&np->lock);
    800014de:	854e                	mv	a0,s3
    800014e0:	00005097          	auipc	ra,0x5
    800014e4:	1ec080e7          	jalr	492(ra) # 800066cc <release>
    return -1;
    800014e8:	597d                	li	s2,-1
    800014ea:	a059                	j	80001570 <fork+0x142>
  for(i = 0; i < NOFILE; i++)
    800014ec:	04a1                	add	s1,s1,8
    800014ee:	0921                	add	s2,s2,8
    800014f0:	01448b63          	beq	s1,s4,80001506 <fork+0xd8>
    if(p->ofile[i])
    800014f4:	6088                	ld	a0,0(s1)
    800014f6:	d97d                	beqz	a0,800014ec <fork+0xbe>
      np->ofile[i] = filedup(p->ofile[i]);
    800014f8:	00003097          	auipc	ra,0x3
    800014fc:	8f6080e7          	jalr	-1802(ra) # 80003dee <filedup>
    80001500:	00a93023          	sd	a0,0(s2)
    80001504:	b7e5                	j	800014ec <fork+0xbe>
  np->cwd = idup(p->cwd);
    80001506:	158ab503          	ld	a0,344(s5)
    8000150a:	00002097          	auipc	ra,0x2
    8000150e:	a8e080e7          	jalr	-1394(ra) # 80002f98 <idup>
    80001512:	14a9bc23          	sd	a0,344(s3)
  safestrcpy(np->name, p->name, sizeof(p->name));
    80001516:	4641                	li	a2,16
    80001518:	160a8593          	add	a1,s5,352
    8000151c:	16098513          	add	a0,s3,352
    80001520:	fffff097          	auipc	ra,0xfffff
    80001524:	dec080e7          	jalr	-532(ra) # 8000030c <safestrcpy>
  pid = np->pid;
    80001528:	0309a903          	lw	s2,48(s3)
  release(&np->lock);
    8000152c:	854e                	mv	a0,s3
    8000152e:	00005097          	auipc	ra,0x5
    80001532:	19e080e7          	jalr	414(ra) # 800066cc <release>
  acquire(&wait_lock);
    80001536:	00007497          	auipc	s1,0x7
    8000153a:	5d248493          	add	s1,s1,1490 # 80008b08 <wait_lock>
    8000153e:	8526                	mv	a0,s1
    80001540:	00005097          	auipc	ra,0x5
    80001544:	0d8080e7          	jalr	216(ra) # 80006618 <acquire>
  np->parent = p;
    80001548:	0359bc23          	sd	s5,56(s3)
  release(&wait_lock);
    8000154c:	8526                	mv	a0,s1
    8000154e:	00005097          	auipc	ra,0x5
    80001552:	17e080e7          	jalr	382(ra) # 800066cc <release>
  acquire(&np->lock);
    80001556:	854e                	mv	a0,s3
    80001558:	00005097          	auipc	ra,0x5
    8000155c:	0c0080e7          	jalr	192(ra) # 80006618 <acquire>
  np->state = RUNNABLE;
    80001560:	478d                	li	a5,3
    80001562:	00f9ac23          	sw	a5,24(s3)
  release(&np->lock);
    80001566:	854e                	mv	a0,s3
    80001568:	00005097          	auipc	ra,0x5
    8000156c:	164080e7          	jalr	356(ra) # 800066cc <release>
}
    80001570:	854a                	mv	a0,s2
    80001572:	70e2                	ld	ra,56(sp)
    80001574:	7442                	ld	s0,48(sp)
    80001576:	74a2                	ld	s1,40(sp)
    80001578:	7902                	ld	s2,32(sp)
    8000157a:	69e2                	ld	s3,24(sp)
    8000157c:	6a42                	ld	s4,16(sp)
    8000157e:	6aa2                	ld	s5,8(sp)
    80001580:	6121                	add	sp,sp,64
    80001582:	8082                	ret
    return -1;
    80001584:	597d                	li	s2,-1
    80001586:	b7ed                	j	80001570 <fork+0x142>

0000000080001588 <scheduler>:
{
    80001588:	711d                	add	sp,sp,-96
    8000158a:	ec86                	sd	ra,88(sp)
    8000158c:	e8a2                	sd	s0,80(sp)
    8000158e:	e4a6                	sd	s1,72(sp)
    80001590:	e0ca                	sd	s2,64(sp)
    80001592:	fc4e                	sd	s3,56(sp)
    80001594:	f852                	sd	s4,48(sp)
    80001596:	f456                	sd	s5,40(sp)
    80001598:	f05a                	sd	s6,32(sp)
    8000159a:	ec5e                	sd	s7,24(sp)
    8000159c:	e862                	sd	s8,16(sp)
    8000159e:	e466                	sd	s9,8(sp)
    800015a0:	1080                	add	s0,sp,96
    800015a2:	8792                	mv	a5,tp
  int id = r_tp();
    800015a4:	2781                	sext.w	a5,a5
  c->proc = 0;
    800015a6:	00779c13          	sll	s8,a5,0x7
    800015aa:	00007717          	auipc	a4,0x7
    800015ae:	54670713          	add	a4,a4,1350 # 80008af0 <pid_lock>
    800015b2:	9762                	add	a4,a4,s8
    800015b4:	02073823          	sd	zero,48(a4)
          swtch(&c->context, &p->context);
    800015b8:	00007717          	auipc	a4,0x7
    800015bc:	57070713          	add	a4,a4,1392 # 80008b28 <cpus+0x8>
    800015c0:	9c3a                	add	s8,s8,a4
      acquire(&proc_lock);
    800015c2:	00008a97          	auipc	s5,0x8
    800015c6:	95ea8a93          	add	s5,s5,-1698 # 80008f20 <proc_lock>
      p = 0;  // Reset the selected process to ensure a fair selection.
    800015ca:	4b81                	li	s7,0
          if (q->state == RUNNABLE) {
    800015cc:	498d                	li	s3,3
      for (q = proc; q < &proc[NPROC]; q++) {
    800015ce:	0000d917          	auipc	s2,0xd
    800015d2:	76a90913          	add	s2,s2,1898 # 8000ed38 <tickslock>
          p->state = RUNNING;
    800015d6:	4c91                	li	s9,4
          c->proc = p;
    800015d8:	079e                	sll	a5,a5,0x7
    800015da:	00007b17          	auipc	s6,0x7
    800015de:	516b0b13          	add	s6,s6,1302 # 80008af0 <pid_lock>
    800015e2:	9b3e                	add	s6,s6,a5
    800015e4:	a89d                	j	8000165a <scheduler+0xd2>
    800015e6:	8a26                	mv	s4,s1
          release(&q->lock);
    800015e8:	8526                	mv	a0,s1
    800015ea:	00005097          	auipc	ra,0x5
    800015ee:	0e2080e7          	jalr	226(ra) # 800066cc <release>
      for (q = proc; q < &proc[NPROC]; q++) {
    800015f2:	17848493          	add	s1,s1,376
    800015f6:	03248463          	beq	s1,s2,8000161e <scheduler+0x96>
          acquire(&q->lock);
    800015fa:	8526                	mv	a0,s1
    800015fc:	00005097          	auipc	ra,0x5
    80001600:	01c080e7          	jalr	28(ra) # 80006618 <acquire>
          if (q->state == RUNNABLE) {
    80001604:	4c9c                	lw	a5,24(s1)
    80001606:	ff3791e3          	bne	a5,s3,800015e8 <scheduler+0x60>
              if (!p || q->priority < p->priority) {
    8000160a:	fc0a0ee3          	beqz	s4,800015e6 <scheduler+0x5e>
    8000160e:	1744a703          	lw	a4,372(s1)
    80001612:	174a2783          	lw	a5,372(s4)
    80001616:	fcf759e3          	bge	a4,a5,800015e8 <scheduler+0x60>
    8000161a:	8a26                	mv	s4,s1
    8000161c:	b7f1                	j	800015e8 <scheduler+0x60>
      if (p) {
    8000161e:	040a0f63          	beqz	s4,8000167c <scheduler+0xf4>
          acquire(&p->lock);
    80001622:	8552                	mv	a0,s4
    80001624:	00005097          	auipc	ra,0x5
    80001628:	ff4080e7          	jalr	-12(ra) # 80006618 <acquire>
          p->state = RUNNING;
    8000162c:	019a2c23          	sw	s9,24(s4)
          release(&proc_lock);
    80001630:	8556                	mv	a0,s5
    80001632:	00005097          	auipc	ra,0x5
    80001636:	09a080e7          	jalr	154(ra) # 800066cc <release>
          c->proc = p;
    8000163a:	034b3823          	sd	s4,48(s6)
          swtch(&c->context, &p->context);
    8000163e:	068a0593          	add	a1,s4,104
    80001642:	8562                	mv	a0,s8
    80001644:	00000097          	auipc	ra,0x0
    80001648:	73c080e7          	jalr	1852(ra) # 80001d80 <swtch>
          c->proc = 0;
    8000164c:	020b3823          	sd	zero,48(s6)
          release(&p->lock);
    80001650:	8552                	mv	a0,s4
    80001652:	00005097          	auipc	ra,0x5
    80001656:	07a080e7          	jalr	122(ra) # 800066cc <release>
  asm volatile("csrr %0, sstatus" : "=r" (x) );
    8000165a:	100027f3          	csrr	a5,sstatus
  w_sstatus(r_sstatus() | SSTATUS_SIE);
    8000165e:	0027e793          	or	a5,a5,2
  asm volatile("csrw sstatus, %0" : : "r" (x));
    80001662:	10079073          	csrw	sstatus,a5
      acquire(&proc_lock);
    80001666:	8556                	mv	a0,s5
    80001668:	00005097          	auipc	ra,0x5
    8000166c:	fb0080e7          	jalr	-80(ra) # 80006618 <acquire>
      for (q = proc; q < &proc[NPROC]; q++) {
    80001670:	00008497          	auipc	s1,0x8
    80001674:	8c848493          	add	s1,s1,-1848 # 80008f38 <proc>
      p = 0;  // Reset the selected process to ensure a fair selection.
    80001678:	8a5e                	mv	s4,s7
    8000167a:	b741                	j	800015fa <scheduler+0x72>
          release(&proc_lock);
    8000167c:	8556                	mv	a0,s5
    8000167e:	00005097          	auipc	ra,0x5
    80001682:	04e080e7          	jalr	78(ra) # 800066cc <release>
    80001686:	bfd1                	j	8000165a <scheduler+0xd2>

0000000080001688 <sched>:
{
    80001688:	7179                	add	sp,sp,-48
    8000168a:	f406                	sd	ra,40(sp)
    8000168c:	f022                	sd	s0,32(sp)
    8000168e:	ec26                	sd	s1,24(sp)
    80001690:	e84a                	sd	s2,16(sp)
    80001692:	e44e                	sd	s3,8(sp)
    80001694:	1800                	add	s0,sp,48
  struct proc *p = myproc();
    80001696:	00000097          	auipc	ra,0x0
    8000169a:	934080e7          	jalr	-1740(ra) # 80000fca <myproc>
    8000169e:	84aa                	mv	s1,a0
  if(!holding(&p->lock))
    800016a0:	00005097          	auipc	ra,0x5
    800016a4:	efe080e7          	jalr	-258(ra) # 8000659e <holding>
    800016a8:	c93d                	beqz	a0,8000171e <sched+0x96>
  asm volatile("mv %0, tp" : "=r" (x) );
    800016aa:	8792                	mv	a5,tp
  if(mycpu()->noff != 1)
    800016ac:	2781                	sext.w	a5,a5
    800016ae:	079e                	sll	a5,a5,0x7
    800016b0:	00007717          	auipc	a4,0x7
    800016b4:	44070713          	add	a4,a4,1088 # 80008af0 <pid_lock>
    800016b8:	97ba                	add	a5,a5,a4
    800016ba:	0a87a703          	lw	a4,168(a5)
    800016be:	4785                	li	a5,1
    800016c0:	06f71763          	bne	a4,a5,8000172e <sched+0xa6>
  if(p->state == RUNNING)
    800016c4:	4c98                	lw	a4,24(s1)
    800016c6:	4791                	li	a5,4
    800016c8:	06f70b63          	beq	a4,a5,8000173e <sched+0xb6>
  asm volatile("csrr %0, sstatus" : "=r" (x) );
    800016cc:	100027f3          	csrr	a5,sstatus
  return (x & SSTATUS_SIE) != 0;
    800016d0:	8b89                	and	a5,a5,2
  if(intr_get())
    800016d2:	efb5                	bnez	a5,8000174e <sched+0xc6>
  asm volatile("mv %0, tp" : "=r" (x) );
    800016d4:	8792                	mv	a5,tp
  intena = mycpu()->intena;
    800016d6:	00007917          	auipc	s2,0x7
    800016da:	41a90913          	add	s2,s2,1050 # 80008af0 <pid_lock>
    800016de:	2781                	sext.w	a5,a5
    800016e0:	079e                	sll	a5,a5,0x7
    800016e2:	97ca                	add	a5,a5,s2
    800016e4:	0ac7a983          	lw	s3,172(a5)
    800016e8:	8792                	mv	a5,tp
  swtch(&p->context, &mycpu()->context);
    800016ea:	2781                	sext.w	a5,a5
    800016ec:	079e                	sll	a5,a5,0x7
    800016ee:	00007597          	auipc	a1,0x7
    800016f2:	43a58593          	add	a1,a1,1082 # 80008b28 <cpus+0x8>
    800016f6:	95be                	add	a1,a1,a5
    800016f8:	06848513          	add	a0,s1,104
    800016fc:	00000097          	auipc	ra,0x0
    80001700:	684080e7          	jalr	1668(ra) # 80001d80 <swtch>
    80001704:	8792                	mv	a5,tp
  mycpu()->intena = intena;
    80001706:	2781                	sext.w	a5,a5
    80001708:	079e                	sll	a5,a5,0x7
    8000170a:	993e                	add	s2,s2,a5
    8000170c:	0b392623          	sw	s3,172(s2)
}
    80001710:	70a2                	ld	ra,40(sp)
    80001712:	7402                	ld	s0,32(sp)
    80001714:	64e2                	ld	s1,24(sp)
    80001716:	6942                	ld	s2,16(sp)
    80001718:	69a2                	ld	s3,8(sp)
    8000171a:	6145                	add	sp,sp,48
    8000171c:	8082                	ret
    panic("sched p->lock");
    8000171e:	00007517          	auipc	a0,0x7
    80001722:	ab250513          	add	a0,a0,-1358 # 800081d0 <etext+0x1d0>
    80001726:	00005097          	auipc	ra,0x5
    8000172a:	9ba080e7          	jalr	-1606(ra) # 800060e0 <panic>
    panic("sched locks");
    8000172e:	00007517          	auipc	a0,0x7
    80001732:	ab250513          	add	a0,a0,-1358 # 800081e0 <etext+0x1e0>
    80001736:	00005097          	auipc	ra,0x5
    8000173a:	9aa080e7          	jalr	-1622(ra) # 800060e0 <panic>
    panic("sched running");
    8000173e:	00007517          	auipc	a0,0x7
    80001742:	ab250513          	add	a0,a0,-1358 # 800081f0 <etext+0x1f0>
    80001746:	00005097          	auipc	ra,0x5
    8000174a:	99a080e7          	jalr	-1638(ra) # 800060e0 <panic>
    panic("sched interruptible");
    8000174e:	00007517          	auipc	a0,0x7
    80001752:	ab250513          	add	a0,a0,-1358 # 80008200 <etext+0x200>
    80001756:	00005097          	auipc	ra,0x5
    8000175a:	98a080e7          	jalr	-1654(ra) # 800060e0 <panic>

000000008000175e <yield>:
{
    8000175e:	1101                	add	sp,sp,-32
    80001760:	ec06                	sd	ra,24(sp)
    80001762:	e822                	sd	s0,16(sp)
    80001764:	e426                	sd	s1,8(sp)
    80001766:	1000                	add	s0,sp,32
  struct proc *p = myproc();
    80001768:	00000097          	auipc	ra,0x0
    8000176c:	862080e7          	jalr	-1950(ra) # 80000fca <myproc>
    80001770:	84aa                	mv	s1,a0
  acquire(&p->lock);
    80001772:	00005097          	auipc	ra,0x5
    80001776:	ea6080e7          	jalr	-346(ra) # 80006618 <acquire>
  p->state = RUNNABLE;
    8000177a:	478d                	li	a5,3
    8000177c:	cc9c                	sw	a5,24(s1)
  sched();
    8000177e:	00000097          	auipc	ra,0x0
    80001782:	f0a080e7          	jalr	-246(ra) # 80001688 <sched>
  release(&p->lock);
    80001786:	8526                	mv	a0,s1
    80001788:	00005097          	auipc	ra,0x5
    8000178c:	f44080e7          	jalr	-188(ra) # 800066cc <release>
}
    80001790:	60e2                	ld	ra,24(sp)
    80001792:	6442                	ld	s0,16(sp)
    80001794:	64a2                	ld	s1,8(sp)
    80001796:	6105                	add	sp,sp,32
    80001798:	8082                	ret

000000008000179a <sleep>:

// Atomically release lock and sleep on chan.
// Reacquires lock when awakened.
void
sleep(void *chan, struct spinlock *lk)
{
    8000179a:	7179                	add	sp,sp,-48
    8000179c:	f406                	sd	ra,40(sp)
    8000179e:	f022                	sd	s0,32(sp)
    800017a0:	ec26                	sd	s1,24(sp)
    800017a2:	e84a                	sd	s2,16(sp)
    800017a4:	e44e                	sd	s3,8(sp)
    800017a6:	1800                	add	s0,sp,48
    800017a8:	89aa                	mv	s3,a0
    800017aa:	892e                	mv	s2,a1
  struct proc *p = myproc();
    800017ac:	00000097          	auipc	ra,0x0
    800017b0:	81e080e7          	jalr	-2018(ra) # 80000fca <myproc>
    800017b4:	84aa                	mv	s1,a0
  // Once we hold p->lock, we can be
  // guaranteed that we won't miss any wakeup
  // (wakeup locks p->lock),
  // so it's okay to release lk.

  acquire(&p->lock);  //DOC: sleeplock1
    800017b6:	00005097          	auipc	ra,0x5
    800017ba:	e62080e7          	jalr	-414(ra) # 80006618 <acquire>
  release(lk);
    800017be:	854a                	mv	a0,s2
    800017c0:	00005097          	auipc	ra,0x5
    800017c4:	f0c080e7          	jalr	-244(ra) # 800066cc <release>

  // Go to sleep.
  p->chan = chan;
    800017c8:	0334b023          	sd	s3,32(s1)
  p->state = SLEEPING;
    800017cc:	4789                	li	a5,2
    800017ce:	cc9c                	sw	a5,24(s1)

  sched();
    800017d0:	00000097          	auipc	ra,0x0
    800017d4:	eb8080e7          	jalr	-328(ra) # 80001688 <sched>

  // Tidy up.
  p->chan = 0;
    800017d8:	0204b023          	sd	zero,32(s1)

  // Reacquire original lock.
  release(&p->lock);
    800017dc:	8526                	mv	a0,s1
    800017de:	00005097          	auipc	ra,0x5
    800017e2:	eee080e7          	jalr	-274(ra) # 800066cc <release>
  acquire(lk);
    800017e6:	854a                	mv	a0,s2
    800017e8:	00005097          	auipc	ra,0x5
    800017ec:	e30080e7          	jalr	-464(ra) # 80006618 <acquire>
}
    800017f0:	70a2                	ld	ra,40(sp)
    800017f2:	7402                	ld	s0,32(sp)
    800017f4:	64e2                	ld	s1,24(sp)
    800017f6:	6942                	ld	s2,16(sp)
    800017f8:	69a2                	ld	s3,8(sp)
    800017fa:	6145                	add	sp,sp,48
    800017fc:	8082                	ret

00000000800017fe <wakeup>:

// Wake up all processes sleeping on chan.
// Must be called without any p->lock.
void
wakeup(void *chan)
{
    800017fe:	7139                	add	sp,sp,-64
    80001800:	fc06                	sd	ra,56(sp)
    80001802:	f822                	sd	s0,48(sp)
    80001804:	f426                	sd	s1,40(sp)
    80001806:	f04a                	sd	s2,32(sp)
    80001808:	ec4e                	sd	s3,24(sp)
    8000180a:	e852                	sd	s4,16(sp)
    8000180c:	e456                	sd	s5,8(sp)
    8000180e:	0080                	add	s0,sp,64
    80001810:	8a2a                	mv	s4,a0
  struct proc *p;

  for(p = proc; p < &proc[NPROC]; p++) {
    80001812:	00007497          	auipc	s1,0x7
    80001816:	72648493          	add	s1,s1,1830 # 80008f38 <proc>
    if(p != myproc()){
      acquire(&p->lock);
      if(p->state == SLEEPING && p->chan == chan) {
    8000181a:	4989                	li	s3,2
        p->state = RUNNABLE;
    8000181c:	4a8d                	li	s5,3
  for(p = proc; p < &proc[NPROC]; p++) {
    8000181e:	0000d917          	auipc	s2,0xd
    80001822:	51a90913          	add	s2,s2,1306 # 8000ed38 <tickslock>
    80001826:	a811                	j	8000183a <wakeup+0x3c>
      }
      release(&p->lock);
    80001828:	8526                	mv	a0,s1
    8000182a:	00005097          	auipc	ra,0x5
    8000182e:	ea2080e7          	jalr	-350(ra) # 800066cc <release>
  for(p = proc; p < &proc[NPROC]; p++) {
    80001832:	17848493          	add	s1,s1,376
    80001836:	03248663          	beq	s1,s2,80001862 <wakeup+0x64>
    if(p != myproc()){
    8000183a:	fffff097          	auipc	ra,0xfffff
    8000183e:	790080e7          	jalr	1936(ra) # 80000fca <myproc>
    80001842:	fea488e3          	beq	s1,a0,80001832 <wakeup+0x34>
      acquire(&p->lock);
    80001846:	8526                	mv	a0,s1
    80001848:	00005097          	auipc	ra,0x5
    8000184c:	dd0080e7          	jalr	-560(ra) # 80006618 <acquire>
      if(p->state == SLEEPING && p->chan == chan) {
    80001850:	4c9c                	lw	a5,24(s1)
    80001852:	fd379be3          	bne	a5,s3,80001828 <wakeup+0x2a>
    80001856:	709c                	ld	a5,32(s1)
    80001858:	fd4798e3          	bne	a5,s4,80001828 <wakeup+0x2a>
        p->state = RUNNABLE;
    8000185c:	0154ac23          	sw	s5,24(s1)
    80001860:	b7e1                	j	80001828 <wakeup+0x2a>
    }
  }
}
    80001862:	70e2                	ld	ra,56(sp)
    80001864:	7442                	ld	s0,48(sp)
    80001866:	74a2                	ld	s1,40(sp)
    80001868:	7902                	ld	s2,32(sp)
    8000186a:	69e2                	ld	s3,24(sp)
    8000186c:	6a42                	ld	s4,16(sp)
    8000186e:	6aa2                	ld	s5,8(sp)
    80001870:	6121                	add	sp,sp,64
    80001872:	8082                	ret

0000000080001874 <reparent>:
{
    80001874:	7179                	add	sp,sp,-48
    80001876:	f406                	sd	ra,40(sp)
    80001878:	f022                	sd	s0,32(sp)
    8000187a:	ec26                	sd	s1,24(sp)
    8000187c:	e84a                	sd	s2,16(sp)
    8000187e:	e44e                	sd	s3,8(sp)
    80001880:	e052                	sd	s4,0(sp)
    80001882:	1800                	add	s0,sp,48
    80001884:	892a                	mv	s2,a0
  for(pp = proc; pp < &proc[NPROC]; pp++){
    80001886:	00007497          	auipc	s1,0x7
    8000188a:	6b248493          	add	s1,s1,1714 # 80008f38 <proc>
      pp->parent = initproc;
    8000188e:	00007a17          	auipc	s4,0x7
    80001892:	212a0a13          	add	s4,s4,530 # 80008aa0 <initproc>
  for(pp = proc; pp < &proc[NPROC]; pp++){
    80001896:	0000d997          	auipc	s3,0xd
    8000189a:	4a298993          	add	s3,s3,1186 # 8000ed38 <tickslock>
    8000189e:	a029                	j	800018a8 <reparent+0x34>
    800018a0:	17848493          	add	s1,s1,376
    800018a4:	01348d63          	beq	s1,s3,800018be <reparent+0x4a>
    if(pp->parent == p){
    800018a8:	7c9c                	ld	a5,56(s1)
    800018aa:	ff279be3          	bne	a5,s2,800018a0 <reparent+0x2c>
      pp->parent = initproc;
    800018ae:	000a3503          	ld	a0,0(s4)
    800018b2:	fc88                	sd	a0,56(s1)
      wakeup(initproc);
    800018b4:	00000097          	auipc	ra,0x0
    800018b8:	f4a080e7          	jalr	-182(ra) # 800017fe <wakeup>
    800018bc:	b7d5                	j	800018a0 <reparent+0x2c>
}
    800018be:	70a2                	ld	ra,40(sp)
    800018c0:	7402                	ld	s0,32(sp)
    800018c2:	64e2                	ld	s1,24(sp)
    800018c4:	6942                	ld	s2,16(sp)
    800018c6:	69a2                	ld	s3,8(sp)
    800018c8:	6a02                	ld	s4,0(sp)
    800018ca:	6145                	add	sp,sp,48
    800018cc:	8082                	ret

00000000800018ce <exit>:
{
    800018ce:	7179                	add	sp,sp,-48
    800018d0:	f406                	sd	ra,40(sp)
    800018d2:	f022                	sd	s0,32(sp)
    800018d4:	ec26                	sd	s1,24(sp)
    800018d6:	e84a                	sd	s2,16(sp)
    800018d8:	e44e                	sd	s3,8(sp)
    800018da:	e052                	sd	s4,0(sp)
    800018dc:	1800                	add	s0,sp,48
    800018de:	8a2a                	mv	s4,a0
  struct proc *p = myproc();
    800018e0:	fffff097          	auipc	ra,0xfffff
    800018e4:	6ea080e7          	jalr	1770(ra) # 80000fca <myproc>
    800018e8:	89aa                	mv	s3,a0
  if(p == initproc)
    800018ea:	00007797          	auipc	a5,0x7
    800018ee:	1b67b783          	ld	a5,438(a5) # 80008aa0 <initproc>
    800018f2:	0d850493          	add	s1,a0,216
    800018f6:	15850913          	add	s2,a0,344
    800018fa:	02a79363          	bne	a5,a0,80001920 <exit+0x52>
    panic("init exiting");
    800018fe:	00007517          	auipc	a0,0x7
    80001902:	91a50513          	add	a0,a0,-1766 # 80008218 <etext+0x218>
    80001906:	00004097          	auipc	ra,0x4
    8000190a:	7da080e7          	jalr	2010(ra) # 800060e0 <panic>
      fileclose(f);
    8000190e:	00002097          	auipc	ra,0x2
    80001912:	532080e7          	jalr	1330(ra) # 80003e40 <fileclose>
      p->ofile[fd] = 0;
    80001916:	0004b023          	sd	zero,0(s1)
  for(int fd = 0; fd < NOFILE; fd++){
    8000191a:	04a1                	add	s1,s1,8
    8000191c:	01248563          	beq	s1,s2,80001926 <exit+0x58>
    if(p->ofile[fd]){
    80001920:	6088                	ld	a0,0(s1)
    80001922:	f575                	bnez	a0,8000190e <exit+0x40>
    80001924:	bfdd                	j	8000191a <exit+0x4c>
  begin_op();
    80001926:	00002097          	auipc	ra,0x2
    8000192a:	056080e7          	jalr	86(ra) # 8000397c <begin_op>
  iput(p->cwd);
    8000192e:	1589b503          	ld	a0,344(s3)
    80001932:	00002097          	auipc	ra,0x2
    80001936:	85e080e7          	jalr	-1954(ra) # 80003190 <iput>
  end_op();
    8000193a:	00002097          	auipc	ra,0x2
    8000193e:	0bc080e7          	jalr	188(ra) # 800039f6 <end_op>
  p->cwd = 0;
    80001942:	1409bc23          	sd	zero,344(s3)
  acquire(&wait_lock);
    80001946:	00007497          	auipc	s1,0x7
    8000194a:	1c248493          	add	s1,s1,450 # 80008b08 <wait_lock>
    8000194e:	8526                	mv	a0,s1
    80001950:	00005097          	auipc	ra,0x5
    80001954:	cc8080e7          	jalr	-824(ra) # 80006618 <acquire>
  reparent(p);
    80001958:	854e                	mv	a0,s3
    8000195a:	00000097          	auipc	ra,0x0
    8000195e:	f1a080e7          	jalr	-230(ra) # 80001874 <reparent>
  wakeup(p->parent);
    80001962:	0389b503          	ld	a0,56(s3)
    80001966:	00000097          	auipc	ra,0x0
    8000196a:	e98080e7          	jalr	-360(ra) # 800017fe <wakeup>
  acquire(&p->lock);
    8000196e:	854e                	mv	a0,s3
    80001970:	00005097          	auipc	ra,0x5
    80001974:	ca8080e7          	jalr	-856(ra) # 80006618 <acquire>
  p->xstate = status;
    80001978:	0349a623          	sw	s4,44(s3)
  p->state = ZOMBIE;
    8000197c:	4795                	li	a5,5
    8000197e:	00f9ac23          	sw	a5,24(s3)
  release(&wait_lock);
    80001982:	8526                	mv	a0,s1
    80001984:	00005097          	auipc	ra,0x5
    80001988:	d48080e7          	jalr	-696(ra) # 800066cc <release>
  sched();
    8000198c:	00000097          	auipc	ra,0x0
    80001990:	cfc080e7          	jalr	-772(ra) # 80001688 <sched>
  panic("zombie exit");
    80001994:	00007517          	auipc	a0,0x7
    80001998:	89450513          	add	a0,a0,-1900 # 80008228 <etext+0x228>
    8000199c:	00004097          	auipc	ra,0x4
    800019a0:	744080e7          	jalr	1860(ra) # 800060e0 <panic>

00000000800019a4 <kill>:
// Kill the process with the given pid.
// The victim won't exit until it tries to return
// to user space (see usertrap() in trap.c).
int
kill(int pid)
{
    800019a4:	7179                	add	sp,sp,-48
    800019a6:	f406                	sd	ra,40(sp)
    800019a8:	f022                	sd	s0,32(sp)
    800019aa:	ec26                	sd	s1,24(sp)
    800019ac:	e84a                	sd	s2,16(sp)
    800019ae:	e44e                	sd	s3,8(sp)
    800019b0:	1800                	add	s0,sp,48
    800019b2:	892a                	mv	s2,a0
  struct proc *p;

  for(p = proc; p < &proc[NPROC]; p++){
    800019b4:	00007497          	auipc	s1,0x7
    800019b8:	58448493          	add	s1,s1,1412 # 80008f38 <proc>
    800019bc:	0000d997          	auipc	s3,0xd
    800019c0:	37c98993          	add	s3,s3,892 # 8000ed38 <tickslock>
    acquire(&p->lock);
    800019c4:	8526                	mv	a0,s1
    800019c6:	00005097          	auipc	ra,0x5
    800019ca:	c52080e7          	jalr	-942(ra) # 80006618 <acquire>
    if(p->pid == pid){
    800019ce:	589c                	lw	a5,48(s1)
    800019d0:	01278d63          	beq	a5,s2,800019ea <kill+0x46>
        p->state = RUNNABLE;
      }
      release(&p->lock);
      return 0;
    }
    release(&p->lock);
    800019d4:	8526                	mv	a0,s1
    800019d6:	00005097          	auipc	ra,0x5
    800019da:	cf6080e7          	jalr	-778(ra) # 800066cc <release>
  for(p = proc; p < &proc[NPROC]; p++){
    800019de:	17848493          	add	s1,s1,376
    800019e2:	ff3491e3          	bne	s1,s3,800019c4 <kill+0x20>
  }
  return -1;
    800019e6:	557d                	li	a0,-1
    800019e8:	a829                	j	80001a02 <kill+0x5e>
      p->killed = 1;
    800019ea:	4785                	li	a5,1
    800019ec:	d49c                	sw	a5,40(s1)
      if(p->state == SLEEPING){
    800019ee:	4c98                	lw	a4,24(s1)
    800019f0:	4789                	li	a5,2
    800019f2:	00f70f63          	beq	a4,a5,80001a10 <kill+0x6c>
      release(&p->lock);
    800019f6:	8526                	mv	a0,s1
    800019f8:	00005097          	auipc	ra,0x5
    800019fc:	cd4080e7          	jalr	-812(ra) # 800066cc <release>
      return 0;
    80001a00:	4501                	li	a0,0
}
    80001a02:	70a2                	ld	ra,40(sp)
    80001a04:	7402                	ld	s0,32(sp)
    80001a06:	64e2                	ld	s1,24(sp)
    80001a08:	6942                	ld	s2,16(sp)
    80001a0a:	69a2                	ld	s3,8(sp)
    80001a0c:	6145                	add	sp,sp,48
    80001a0e:	8082                	ret
        p->state = RUNNABLE;
    80001a10:	478d                	li	a5,3
    80001a12:	cc9c                	sw	a5,24(s1)
    80001a14:	b7cd                	j	800019f6 <kill+0x52>

0000000080001a16 <setkilled>:

void
setkilled(struct proc *p)
{
    80001a16:	1101                	add	sp,sp,-32
    80001a18:	ec06                	sd	ra,24(sp)
    80001a1a:	e822                	sd	s0,16(sp)
    80001a1c:	e426                	sd	s1,8(sp)
    80001a1e:	1000                	add	s0,sp,32
    80001a20:	84aa                	mv	s1,a0
  acquire(&p->lock);
    80001a22:	00005097          	auipc	ra,0x5
    80001a26:	bf6080e7          	jalr	-1034(ra) # 80006618 <acquire>
  p->killed = 1;
    80001a2a:	4785                	li	a5,1
    80001a2c:	d49c                	sw	a5,40(s1)
  release(&p->lock);
    80001a2e:	8526                	mv	a0,s1
    80001a30:	00005097          	auipc	ra,0x5
    80001a34:	c9c080e7          	jalr	-868(ra) # 800066cc <release>
}
    80001a38:	60e2                	ld	ra,24(sp)
    80001a3a:	6442                	ld	s0,16(sp)
    80001a3c:	64a2                	ld	s1,8(sp)
    80001a3e:	6105                	add	sp,sp,32
    80001a40:	8082                	ret

0000000080001a42 <killed>:

int
killed(struct proc *p)
{
    80001a42:	1101                	add	sp,sp,-32
    80001a44:	ec06                	sd	ra,24(sp)
    80001a46:	e822                	sd	s0,16(sp)
    80001a48:	e426                	sd	s1,8(sp)
    80001a4a:	e04a                	sd	s2,0(sp)
    80001a4c:	1000                	add	s0,sp,32
    80001a4e:	84aa                	mv	s1,a0
  int k;
  
  acquire(&p->lock);
    80001a50:	00005097          	auipc	ra,0x5
    80001a54:	bc8080e7          	jalr	-1080(ra) # 80006618 <acquire>
  k = p->killed;
    80001a58:	0284a903          	lw	s2,40(s1)
  release(&p->lock);
    80001a5c:	8526                	mv	a0,s1
    80001a5e:	00005097          	auipc	ra,0x5
    80001a62:	c6e080e7          	jalr	-914(ra) # 800066cc <release>
  return k;
}
    80001a66:	854a                	mv	a0,s2
    80001a68:	60e2                	ld	ra,24(sp)
    80001a6a:	6442                	ld	s0,16(sp)
    80001a6c:	64a2                	ld	s1,8(sp)
    80001a6e:	6902                	ld	s2,0(sp)
    80001a70:	6105                	add	sp,sp,32
    80001a72:	8082                	ret

0000000080001a74 <wait>:
{
    80001a74:	715d                	add	sp,sp,-80
    80001a76:	e486                	sd	ra,72(sp)
    80001a78:	e0a2                	sd	s0,64(sp)
    80001a7a:	fc26                	sd	s1,56(sp)
    80001a7c:	f84a                	sd	s2,48(sp)
    80001a7e:	f44e                	sd	s3,40(sp)
    80001a80:	f052                	sd	s4,32(sp)
    80001a82:	ec56                	sd	s5,24(sp)
    80001a84:	e85a                	sd	s6,16(sp)
    80001a86:	e45e                	sd	s7,8(sp)
    80001a88:	e062                	sd	s8,0(sp)
    80001a8a:	0880                	add	s0,sp,80
    80001a8c:	8b2a                	mv	s6,a0
  struct proc *p = myproc();
    80001a8e:	fffff097          	auipc	ra,0xfffff
    80001a92:	53c080e7          	jalr	1340(ra) # 80000fca <myproc>
    80001a96:	892a                	mv	s2,a0
  acquire(&wait_lock);
    80001a98:	00007517          	auipc	a0,0x7
    80001a9c:	07050513          	add	a0,a0,112 # 80008b08 <wait_lock>
    80001aa0:	00005097          	auipc	ra,0x5
    80001aa4:	b78080e7          	jalr	-1160(ra) # 80006618 <acquire>
    havekids = 0;
    80001aa8:	4b81                	li	s7,0
        if(pp->state == ZOMBIE){
    80001aaa:	4a15                	li	s4,5
        havekids = 1;
    80001aac:	4a85                	li	s5,1
    for(pp = proc; pp < &proc[NPROC]; pp++){
    80001aae:	0000d997          	auipc	s3,0xd
    80001ab2:	28a98993          	add	s3,s3,650 # 8000ed38 <tickslock>
    sleep(p, &wait_lock);  //DOC: wait-sleep
    80001ab6:	00007c17          	auipc	s8,0x7
    80001aba:	052c0c13          	add	s8,s8,82 # 80008b08 <wait_lock>
    80001abe:	a0d1                	j	80001b82 <wait+0x10e>
          pid = pp->pid;
    80001ac0:	0304a983          	lw	s3,48(s1)
          if(addr != 0 && copyout(p->pagetable, addr, (char *)&pp->xstate,
    80001ac4:	000b0e63          	beqz	s6,80001ae0 <wait+0x6c>
    80001ac8:	4691                	li	a3,4
    80001aca:	02c48613          	add	a2,s1,44
    80001ace:	85da                	mv	a1,s6
    80001ad0:	05093503          	ld	a0,80(s2)
    80001ad4:	fffff097          	auipc	ra,0xfffff
    80001ad8:	088080e7          	jalr	136(ra) # 80000b5c <copyout>
    80001adc:	04054163          	bltz	a0,80001b1e <wait+0xaa>
          freeproc(pp);
    80001ae0:	8526                	mv	a0,s1
    80001ae2:	fffff097          	auipc	ra,0xfffff
    80001ae6:	70c080e7          	jalr	1804(ra) # 800011ee <freeproc>
          release(&pp->lock);
    80001aea:	8526                	mv	a0,s1
    80001aec:	00005097          	auipc	ra,0x5
    80001af0:	be0080e7          	jalr	-1056(ra) # 800066cc <release>
          release(&wait_lock);
    80001af4:	00007517          	auipc	a0,0x7
    80001af8:	01450513          	add	a0,a0,20 # 80008b08 <wait_lock>
    80001afc:	00005097          	auipc	ra,0x5
    80001b00:	bd0080e7          	jalr	-1072(ra) # 800066cc <release>
}
    80001b04:	854e                	mv	a0,s3
    80001b06:	60a6                	ld	ra,72(sp)
    80001b08:	6406                	ld	s0,64(sp)
    80001b0a:	74e2                	ld	s1,56(sp)
    80001b0c:	7942                	ld	s2,48(sp)
    80001b0e:	79a2                	ld	s3,40(sp)
    80001b10:	7a02                	ld	s4,32(sp)
    80001b12:	6ae2                	ld	s5,24(sp)
    80001b14:	6b42                	ld	s6,16(sp)
    80001b16:	6ba2                	ld	s7,8(sp)
    80001b18:	6c02                	ld	s8,0(sp)
    80001b1a:	6161                	add	sp,sp,80
    80001b1c:	8082                	ret
            release(&pp->lock);
    80001b1e:	8526                	mv	a0,s1
    80001b20:	00005097          	auipc	ra,0x5
    80001b24:	bac080e7          	jalr	-1108(ra) # 800066cc <release>
            release(&wait_lock);
    80001b28:	00007517          	auipc	a0,0x7
    80001b2c:	fe050513          	add	a0,a0,-32 # 80008b08 <wait_lock>
    80001b30:	00005097          	auipc	ra,0x5
    80001b34:	b9c080e7          	jalr	-1124(ra) # 800066cc <release>
            return -1;
    80001b38:	59fd                	li	s3,-1
    80001b3a:	b7e9                	j	80001b04 <wait+0x90>
    for(pp = proc; pp < &proc[NPROC]; pp++){
    80001b3c:	17848493          	add	s1,s1,376
    80001b40:	03348463          	beq	s1,s3,80001b68 <wait+0xf4>
      if(pp->parent == p){
    80001b44:	7c9c                	ld	a5,56(s1)
    80001b46:	ff279be3          	bne	a5,s2,80001b3c <wait+0xc8>
        acquire(&pp->lock);
    80001b4a:	8526                	mv	a0,s1
    80001b4c:	00005097          	auipc	ra,0x5
    80001b50:	acc080e7          	jalr	-1332(ra) # 80006618 <acquire>
        if(pp->state == ZOMBIE){
    80001b54:	4c9c                	lw	a5,24(s1)
    80001b56:	f74785e3          	beq	a5,s4,80001ac0 <wait+0x4c>
        release(&pp->lock);
    80001b5a:	8526                	mv	a0,s1
    80001b5c:	00005097          	auipc	ra,0x5
    80001b60:	b70080e7          	jalr	-1168(ra) # 800066cc <release>
        havekids = 1;
    80001b64:	8756                	mv	a4,s5
    80001b66:	bfd9                	j	80001b3c <wait+0xc8>
    if(!havekids || killed(p)){
    80001b68:	c31d                	beqz	a4,80001b8e <wait+0x11a>
    80001b6a:	854a                	mv	a0,s2
    80001b6c:	00000097          	auipc	ra,0x0
    80001b70:	ed6080e7          	jalr	-298(ra) # 80001a42 <killed>
    80001b74:	ed09                	bnez	a0,80001b8e <wait+0x11a>
    sleep(p, &wait_lock);  //DOC: wait-sleep
    80001b76:	85e2                	mv	a1,s8
    80001b78:	854a                	mv	a0,s2
    80001b7a:	00000097          	auipc	ra,0x0
    80001b7e:	c20080e7          	jalr	-992(ra) # 8000179a <sleep>
    havekids = 0;
    80001b82:	875e                	mv	a4,s7
    for(pp = proc; pp < &proc[NPROC]; pp++){
    80001b84:	00007497          	auipc	s1,0x7
    80001b88:	3b448493          	add	s1,s1,948 # 80008f38 <proc>
    80001b8c:	bf65                	j	80001b44 <wait+0xd0>
      release(&wait_lock);
    80001b8e:	00007517          	auipc	a0,0x7
    80001b92:	f7a50513          	add	a0,a0,-134 # 80008b08 <wait_lock>
    80001b96:	00005097          	auipc	ra,0x5
    80001b9a:	b36080e7          	jalr	-1226(ra) # 800066cc <release>
      return -1;
    80001b9e:	59fd                	li	s3,-1
    80001ba0:	b795                	j	80001b04 <wait+0x90>

0000000080001ba2 <either_copyout>:
// Copy to either a user address, or kernel address,
// depending on usr_dst.
// Returns 0 on success, -1 on error.
int
either_copyout(int user_dst, uint64 dst, void *src, uint64 len)
{
    80001ba2:	7179                	add	sp,sp,-48
    80001ba4:	f406                	sd	ra,40(sp)
    80001ba6:	f022                	sd	s0,32(sp)
    80001ba8:	ec26                	sd	s1,24(sp)
    80001baa:	e84a                	sd	s2,16(sp)
    80001bac:	e44e                	sd	s3,8(sp)
    80001bae:	e052                	sd	s4,0(sp)
    80001bb0:	1800                	add	s0,sp,48
    80001bb2:	84aa                	mv	s1,a0
    80001bb4:	892e                	mv	s2,a1
    80001bb6:	89b2                	mv	s3,a2
    80001bb8:	8a36                	mv	s4,a3
  struct proc *p = myproc();
    80001bba:	fffff097          	auipc	ra,0xfffff
    80001bbe:	410080e7          	jalr	1040(ra) # 80000fca <myproc>
  if(user_dst){
    80001bc2:	c08d                	beqz	s1,80001be4 <either_copyout+0x42>
    return copyout(p->pagetable, dst, src, len);
    80001bc4:	86d2                	mv	a3,s4
    80001bc6:	864e                	mv	a2,s3
    80001bc8:	85ca                	mv	a1,s2
    80001bca:	6928                	ld	a0,80(a0)
    80001bcc:	fffff097          	auipc	ra,0xfffff
    80001bd0:	f90080e7          	jalr	-112(ra) # 80000b5c <copyout>
  } else {
    memmove((char *)dst, src, len);
    return 0;
  }
}
    80001bd4:	70a2                	ld	ra,40(sp)
    80001bd6:	7402                	ld	s0,32(sp)
    80001bd8:	64e2                	ld	s1,24(sp)
    80001bda:	6942                	ld	s2,16(sp)
    80001bdc:	69a2                	ld	s3,8(sp)
    80001bde:	6a02                	ld	s4,0(sp)
    80001be0:	6145                	add	sp,sp,48
    80001be2:	8082                	ret
    memmove((char *)dst, src, len);
    80001be4:	000a061b          	sext.w	a2,s4
    80001be8:	85ce                	mv	a1,s3
    80001bea:	854a                	mv	a0,s2
    80001bec:	ffffe097          	auipc	ra,0xffffe
    80001bf0:	634080e7          	jalr	1588(ra) # 80000220 <memmove>
    return 0;
    80001bf4:	8526                	mv	a0,s1
    80001bf6:	bff9                	j	80001bd4 <either_copyout+0x32>

0000000080001bf8 <either_copyin>:
// Copy from either a user address, or kernel address,
// depending on usr_src.
// Returns 0 on success, -1 on error.
int
either_copyin(void *dst, int user_src, uint64 src, uint64 len)
{
    80001bf8:	7179                	add	sp,sp,-48
    80001bfa:	f406                	sd	ra,40(sp)
    80001bfc:	f022                	sd	s0,32(sp)
    80001bfe:	ec26                	sd	s1,24(sp)
    80001c00:	e84a                	sd	s2,16(sp)
    80001c02:	e44e                	sd	s3,8(sp)
    80001c04:	e052                	sd	s4,0(sp)
    80001c06:	1800                	add	s0,sp,48
    80001c08:	892a                	mv	s2,a0
    80001c0a:	84ae                	mv	s1,a1
    80001c0c:	89b2                	mv	s3,a2
    80001c0e:	8a36                	mv	s4,a3
  struct proc *p = myproc();
    80001c10:	fffff097          	auipc	ra,0xfffff
    80001c14:	3ba080e7          	jalr	954(ra) # 80000fca <myproc>
  if(user_src){
    80001c18:	c08d                	beqz	s1,80001c3a <either_copyin+0x42>
    return copyin(p->pagetable, dst, src, len);
    80001c1a:	86d2                	mv	a3,s4
    80001c1c:	864e                	mv	a2,s3
    80001c1e:	85ca                	mv	a1,s2
    80001c20:	6928                	ld	a0,80(a0)
    80001c22:	fffff097          	auipc	ra,0xfffff
    80001c26:	fc6080e7          	jalr	-58(ra) # 80000be8 <copyin>
  } else {
    memmove(dst, (char*)src, len);
    return 0;
  }
}
    80001c2a:	70a2                	ld	ra,40(sp)
    80001c2c:	7402                	ld	s0,32(sp)
    80001c2e:	64e2                	ld	s1,24(sp)
    80001c30:	6942                	ld	s2,16(sp)
    80001c32:	69a2                	ld	s3,8(sp)
    80001c34:	6a02                	ld	s4,0(sp)
    80001c36:	6145                	add	sp,sp,48
    80001c38:	8082                	ret
    memmove(dst, (char*)src, len);
    80001c3a:	000a061b          	sext.w	a2,s4
    80001c3e:	85ce                	mv	a1,s3
    80001c40:	854a                	mv	a0,s2
    80001c42:	ffffe097          	auipc	ra,0xffffe
    80001c46:	5de080e7          	jalr	1502(ra) # 80000220 <memmove>
    return 0;
    80001c4a:	8526                	mv	a0,s1
    80001c4c:	bff9                	j	80001c2a <either_copyin+0x32>

0000000080001c4e <procdump>:
// Print a process listing to console.  For debugging.
// Runs when user types ^P on console.
// No lock to avoid wedging a stuck machine further.
void
procdump(void)
{
    80001c4e:	715d                	add	sp,sp,-80
    80001c50:	e486                	sd	ra,72(sp)
    80001c52:	e0a2                	sd	s0,64(sp)
    80001c54:	fc26                	sd	s1,56(sp)
    80001c56:	f84a                	sd	s2,48(sp)
    80001c58:	f44e                	sd	s3,40(sp)
    80001c5a:	f052                	sd	s4,32(sp)
    80001c5c:	ec56                	sd	s5,24(sp)
    80001c5e:	e85a                	sd	s6,16(sp)
    80001c60:	e45e                	sd	s7,8(sp)
    80001c62:	0880                	add	s0,sp,80
  [ZOMBIE]    "zombie"
  };
  struct proc *p;
  char *state;

  printf("\n");
    80001c64:	00006517          	auipc	a0,0x6
    80001c68:	3e450513          	add	a0,a0,996 # 80008048 <etext+0x48>
    80001c6c:	00004097          	auipc	ra,0x4
    80001c70:	4be080e7          	jalr	1214(ra) # 8000612a <printf>
  for(p = proc; p < &proc[NPROC]; p++){
    80001c74:	00007497          	auipc	s1,0x7
    80001c78:	42448493          	add	s1,s1,1060 # 80009098 <proc+0x160>
    80001c7c:	0000d917          	auipc	s2,0xd
    80001c80:	21c90913          	add	s2,s2,540 # 8000ee98 <bcache+0x148>
    if(p->state == UNUSED)
      continue;
    if(p->state >= 0 && p->state < NELEM(states) && states[p->state])
    80001c84:	4b15                	li	s6,5
      state = states[p->state];
    else
      state = "???";
    80001c86:	00006997          	auipc	s3,0x6
    80001c8a:	5b298993          	add	s3,s3,1458 # 80008238 <etext+0x238>
    printf("%d %s %s", p->pid, state, p->name);
    80001c8e:	00006a97          	auipc	s5,0x6
    80001c92:	5b2a8a93          	add	s5,s5,1458 # 80008240 <etext+0x240>
    printf("\n");
    80001c96:	00006a17          	auipc	s4,0x6
    80001c9a:	3b2a0a13          	add	s4,s4,946 # 80008048 <etext+0x48>
    if(p->state >= 0 && p->state < NELEM(states) && states[p->state])
    80001c9e:	00006b97          	auipc	s7,0x6
    80001ca2:	5e2b8b93          	add	s7,s7,1506 # 80008280 <states.0>
    80001ca6:	a00d                	j	80001cc8 <procdump+0x7a>
    printf("%d %s %s", p->pid, state, p->name);
    80001ca8:	ed06a583          	lw	a1,-304(a3)
    80001cac:	8556                	mv	a0,s5
    80001cae:	00004097          	auipc	ra,0x4
    80001cb2:	47c080e7          	jalr	1148(ra) # 8000612a <printf>
    printf("\n");
    80001cb6:	8552                	mv	a0,s4
    80001cb8:	00004097          	auipc	ra,0x4
    80001cbc:	472080e7          	jalr	1138(ra) # 8000612a <printf>
  for(p = proc; p < &proc[NPROC]; p++){
    80001cc0:	17848493          	add	s1,s1,376
    80001cc4:	03248263          	beq	s1,s2,80001ce8 <procdump+0x9a>
    if(p->state == UNUSED)
    80001cc8:	86a6                	mv	a3,s1
    80001cca:	eb84a783          	lw	a5,-328(s1)
    80001cce:	dbed                	beqz	a5,80001cc0 <procdump+0x72>
      state = "???";
    80001cd0:	864e                	mv	a2,s3
    if(p->state >= 0 && p->state < NELEM(states) && states[p->state])
    80001cd2:	fcfb6be3          	bltu	s6,a5,80001ca8 <procdump+0x5a>
    80001cd6:	02079713          	sll	a4,a5,0x20
    80001cda:	01d75793          	srl	a5,a4,0x1d
    80001cde:	97de                	add	a5,a5,s7
    80001ce0:	6390                	ld	a2,0(a5)
    80001ce2:	f279                	bnez	a2,80001ca8 <procdump+0x5a>
      state = "???";
    80001ce4:	864e                	mv	a2,s3
    80001ce6:	b7c9                	j	80001ca8 <procdump+0x5a>
  }
}
    80001ce8:	60a6                	ld	ra,72(sp)
    80001cea:	6406                	ld	s0,64(sp)
    80001cec:	74e2                	ld	s1,56(sp)
    80001cee:	7942                	ld	s2,48(sp)
    80001cf0:	79a2                	ld	s3,40(sp)
    80001cf2:	7a02                	ld	s4,32(sp)
    80001cf4:	6ae2                	ld	s5,24(sp)
    80001cf6:	6b42                	ld	s6,16(sp)
    80001cf8:	6ba2                	ld	s7,8(sp)
    80001cfa:	6161                	add	sp,sp,80
    80001cfc:	8082                	ret

0000000080001cfe <procsinuse>:

// Returns the number of processes whose state is not UNUSED
uint64
procsinuse(void)
{
    80001cfe:	1141                	add	sp,sp,-16
    80001d00:	e422                	sd	s0,8(sp)
    80001d02:	0800                	add	s0,sp,16
  struct proc *p;
  uint64 num_procs = 0;
    80001d04:	4501                	li	a0,0
  for(p = proc; p < &proc[NPROC]; p++){
    80001d06:	00007797          	auipc	a5,0x7
    80001d0a:	23278793          	add	a5,a5,562 # 80008f38 <proc>
    80001d0e:	0000d697          	auipc	a3,0xd
    80001d12:	02a68693          	add	a3,a3,42 # 8000ed38 <tickslock>
    if(p->state != UNUSED)
    80001d16:	4f98                	lw	a4,24(a5)
      num_procs++;
    80001d18:	00e03733          	snez	a4,a4
    80001d1c:	953a                	add	a0,a0,a4
  for(p = proc; p < &proc[NPROC]; p++){
    80001d1e:	17878793          	add	a5,a5,376
    80001d22:	fed79ae3          	bne	a5,a3,80001d16 <procsinuse+0x18>
  }
  return num_procs;
}
    80001d26:	6422                	ld	s0,8(sp)
    80001d28:	0141                	add	sp,sp,16
    80001d2a:	8082                	ret

0000000080001d2c <setpriority>:

uint64
setpriority(int priority)
{
    80001d2c:	1101                	add	sp,sp,-32
    80001d2e:	ec06                	sd	ra,24(sp)
    80001d30:	e822                	sd	s0,16(sp)
    80001d32:	e426                	sd	s1,8(sp)
    80001d34:	e04a                	sd	s2,0(sp)
    80001d36:	1000                	add	s0,sp,32
    80001d38:	84aa                	mv	s1,a0
  struct proc *p = myproc();
    80001d3a:	fffff097          	auipc	ra,0xfffff
    80001d3e:	290080e7          	jalr	656(ra) # 80000fca <myproc>
    80001d42:	892a                	mv	s2,a0
  acquire(&p->lock);
    80001d44:	00005097          	auipc	ra,0x5
    80001d48:	8d4080e7          	jalr	-1836(ra) # 80006618 <acquire>

  if (priority < 1 || priority > 10) {
    80001d4c:	fff4871b          	addw	a4,s1,-1
    80001d50:	47a5                	li	a5,9
    80001d52:	02e7e063          	bltu	a5,a4,80001d72 <setpriority+0x46>
      release(&p->lock);
      return -1;
  }

  p->priority = priority;
    80001d56:	16992a23          	sw	s1,372(s2)
  release(&p->lock);
    80001d5a:	854a                	mv	a0,s2
    80001d5c:	00005097          	auipc	ra,0x5
    80001d60:	970080e7          	jalr	-1680(ra) # 800066cc <release>
  return 0;
    80001d64:	4501                	li	a0,0
    80001d66:	60e2                	ld	ra,24(sp)
    80001d68:	6442                	ld	s0,16(sp)
    80001d6a:	64a2                	ld	s1,8(sp)
    80001d6c:	6902                	ld	s2,0(sp)
    80001d6e:	6105                	add	sp,sp,32
    80001d70:	8082                	ret
      release(&p->lock);
    80001d72:	854a                	mv	a0,s2
    80001d74:	00005097          	auipc	ra,0x5
    80001d78:	958080e7          	jalr	-1704(ra) # 800066cc <release>
      return -1;
    80001d7c:	557d                	li	a0,-1
    80001d7e:	b7e5                	j	80001d66 <setpriority+0x3a>

0000000080001d80 <swtch>:
    80001d80:	00153023          	sd	ra,0(a0)
    80001d84:	00253423          	sd	sp,8(a0)
    80001d88:	e900                	sd	s0,16(a0)
    80001d8a:	ed04                	sd	s1,24(a0)
    80001d8c:	03253023          	sd	s2,32(a0)
    80001d90:	03353423          	sd	s3,40(a0)
    80001d94:	03453823          	sd	s4,48(a0)
    80001d98:	03553c23          	sd	s5,56(a0)
    80001d9c:	05653023          	sd	s6,64(a0)
    80001da0:	05753423          	sd	s7,72(a0)
    80001da4:	05853823          	sd	s8,80(a0)
    80001da8:	05953c23          	sd	s9,88(a0)
    80001dac:	07a53023          	sd	s10,96(a0)
    80001db0:	07b53423          	sd	s11,104(a0)
    80001db4:	0005b083          	ld	ra,0(a1)
    80001db8:	0085b103          	ld	sp,8(a1)
    80001dbc:	6980                	ld	s0,16(a1)
    80001dbe:	6d84                	ld	s1,24(a1)
    80001dc0:	0205b903          	ld	s2,32(a1)
    80001dc4:	0285b983          	ld	s3,40(a1)
    80001dc8:	0305ba03          	ld	s4,48(a1)
    80001dcc:	0385ba83          	ld	s5,56(a1)
    80001dd0:	0405bb03          	ld	s6,64(a1)
    80001dd4:	0485bb83          	ld	s7,72(a1)
    80001dd8:	0505bc03          	ld	s8,80(a1)
    80001ddc:	0585bc83          	ld	s9,88(a1)
    80001de0:	0605bd03          	ld	s10,96(a1)
    80001de4:	0685bd83          	ld	s11,104(a1)
    80001de8:	8082                	ret

0000000080001dea <trapinit>:

extern int devintr();

void
trapinit(void)
{
    80001dea:	1141                	add	sp,sp,-16
    80001dec:	e406                	sd	ra,8(sp)
    80001dee:	e022                	sd	s0,0(sp)
    80001df0:	0800                	add	s0,sp,16
  initlock(&tickslock, "time");
    80001df2:	00006597          	auipc	a1,0x6
    80001df6:	4be58593          	add	a1,a1,1214 # 800082b0 <states.0+0x30>
    80001dfa:	0000d517          	auipc	a0,0xd
    80001dfe:	f3e50513          	add	a0,a0,-194 # 8000ed38 <tickslock>
    80001e02:	00004097          	auipc	ra,0x4
    80001e06:	786080e7          	jalr	1926(ra) # 80006588 <initlock>
}
    80001e0a:	60a2                	ld	ra,8(sp)
    80001e0c:	6402                	ld	s0,0(sp)
    80001e0e:	0141                	add	sp,sp,16
    80001e10:	8082                	ret

0000000080001e12 <trapinithart>:

// set up to take exceptions and traps while in the kernel.
void
trapinithart(void)
{
    80001e12:	1141                	add	sp,sp,-16
    80001e14:	e422                	sd	s0,8(sp)
    80001e16:	0800                	add	s0,sp,16
  asm volatile("csrw stvec, %0" : : "r" (x));
    80001e18:	00003797          	auipc	a5,0x3
    80001e1c:	64878793          	add	a5,a5,1608 # 80005460 <kernelvec>
    80001e20:	10579073          	csrw	stvec,a5
  w_stvec((uint64)kernelvec);
}
    80001e24:	6422                	ld	s0,8(sp)
    80001e26:	0141                	add	sp,sp,16
    80001e28:	8082                	ret

0000000080001e2a <usertrapret>:
//
// return to user space
//
void
usertrapret(void)
{
    80001e2a:	1141                	add	sp,sp,-16
    80001e2c:	e406                	sd	ra,8(sp)
    80001e2e:	e022                	sd	s0,0(sp)
    80001e30:	0800                	add	s0,sp,16
  struct proc *p = myproc();
    80001e32:	fffff097          	auipc	ra,0xfffff
    80001e36:	198080e7          	jalr	408(ra) # 80000fca <myproc>
  asm volatile("csrr %0, sstatus" : "=r" (x) );
    80001e3a:	100027f3          	csrr	a5,sstatus
  w_sstatus(r_sstatus() & ~SSTATUS_SIE);
    80001e3e:	9bf5                	and	a5,a5,-3
  asm volatile("csrw sstatus, %0" : : "r" (x));
    80001e40:	10079073          	csrw	sstatus,a5
  // kerneltrap() to usertrap(), so turn off interrupts until
  // we're back in user space, where usertrap() is correct.
  intr_off();

  // send syscalls, interrupts, and exceptions to uservec in trampoline.S
  uint64 trampoline_uservec = TRAMPOLINE + (uservec - trampoline);
    80001e44:	00005697          	auipc	a3,0x5
    80001e48:	1bc68693          	add	a3,a3,444 # 80007000 <_trampoline>
    80001e4c:	00005717          	auipc	a4,0x5
    80001e50:	1b470713          	add	a4,a4,436 # 80007000 <_trampoline>
    80001e54:	8f15                	sub	a4,a4,a3
    80001e56:	040007b7          	lui	a5,0x4000
    80001e5a:	17fd                	add	a5,a5,-1 # 3ffffff <_entry-0x7c000001>
    80001e5c:	07b2                	sll	a5,a5,0xc
    80001e5e:	973e                	add	a4,a4,a5
  asm volatile("csrw stvec, %0" : : "r" (x));
    80001e60:	10571073          	csrw	stvec,a4
  w_stvec(trampoline_uservec);

  // set up trapframe values that uservec will need when
  // the process next traps into the kernel.
  p->trapframe->kernel_satp = r_satp();         // kernel page table
    80001e64:	7138                	ld	a4,96(a0)
  asm volatile("csrr %0, satp" : "=r" (x) );
    80001e66:	18002673          	csrr	a2,satp
    80001e6a:	e310                	sd	a2,0(a4)
  p->trapframe->kernel_sp = p->kstack + PGSIZE; // process's kernel stack
    80001e6c:	7130                	ld	a2,96(a0)
    80001e6e:	6138                	ld	a4,64(a0)
    80001e70:	6585                	lui	a1,0x1
    80001e72:	972e                	add	a4,a4,a1
    80001e74:	e618                	sd	a4,8(a2)
  p->trapframe->kernel_trap = (uint64)usertrap;
    80001e76:	7138                	ld	a4,96(a0)
    80001e78:	00000617          	auipc	a2,0x0
    80001e7c:	13460613          	add	a2,a2,308 # 80001fac <usertrap>
    80001e80:	eb10                	sd	a2,16(a4)
  p->trapframe->kernel_hartid = r_tp();         // hartid for cpuid()
    80001e82:	7138                	ld	a4,96(a0)
  asm volatile("mv %0, tp" : "=r" (x) );
    80001e84:	8612                	mv	a2,tp
    80001e86:	f310                	sd	a2,32(a4)
  asm volatile("csrr %0, sstatus" : "=r" (x) );
    80001e88:	10002773          	csrr	a4,sstatus
  // set up the registers that trampoline.S's sret will use
  // to get to user space.
  
  // set S Previous Privilege mode to User.
  unsigned long x = r_sstatus();
  x &= ~SSTATUS_SPP; // clear SPP to 0 for user mode
    80001e8c:	eff77713          	and	a4,a4,-257
  x |= SSTATUS_SPIE; // enable interrupts in user mode
    80001e90:	02076713          	or	a4,a4,32
  asm volatile("csrw sstatus, %0" : : "r" (x));
    80001e94:	10071073          	csrw	sstatus,a4
  w_sstatus(x);

  // set S Exception Program Counter to the saved user pc.
  w_sepc(p->trapframe->epc);
    80001e98:	7138                	ld	a4,96(a0)
  asm volatile("csrw sepc, %0" : : "r" (x));
    80001e9a:	6f18                	ld	a4,24(a4)
    80001e9c:	14171073          	csrw	sepc,a4

  // tell trampoline.S the user page table to switch to.
  uint64 satp = MAKE_SATP(p->pagetable);
    80001ea0:	6928                	ld	a0,80(a0)
    80001ea2:	8131                	srl	a0,a0,0xc

  // jump to userret in trampoline.S at the top of memory, which 
  // switches to the user page table, restores user registers,
  // and switches to user mode with sret.
  uint64 trampoline_userret = TRAMPOLINE + (userret - trampoline);
    80001ea4:	00005717          	auipc	a4,0x5
    80001ea8:	1f870713          	add	a4,a4,504 # 8000709c <userret>
    80001eac:	8f15                	sub	a4,a4,a3
    80001eae:	97ba                	add	a5,a5,a4
  ((void (*)(uint64))trampoline_userret)(satp);
    80001eb0:	577d                	li	a4,-1
    80001eb2:	177e                	sll	a4,a4,0x3f
    80001eb4:	8d59                	or	a0,a0,a4
    80001eb6:	9782                	jalr	a5
}
    80001eb8:	60a2                	ld	ra,8(sp)
    80001eba:	6402                	ld	s0,0(sp)
    80001ebc:	0141                	add	sp,sp,16
    80001ebe:	8082                	ret

0000000080001ec0 <clockintr>:
  w_sstatus(sstatus);
}

void
clockintr()
{
    80001ec0:	1101                	add	sp,sp,-32
    80001ec2:	ec06                	sd	ra,24(sp)
    80001ec4:	e822                	sd	s0,16(sp)
    80001ec6:	e426                	sd	s1,8(sp)
    80001ec8:	1000                	add	s0,sp,32
  acquire(&tickslock);
    80001eca:	0000d497          	auipc	s1,0xd
    80001ece:	e6e48493          	add	s1,s1,-402 # 8000ed38 <tickslock>
    80001ed2:	8526                	mv	a0,s1
    80001ed4:	00004097          	auipc	ra,0x4
    80001ed8:	744080e7          	jalr	1860(ra) # 80006618 <acquire>
  ticks++;
    80001edc:	00007517          	auipc	a0,0x7
    80001ee0:	bcc50513          	add	a0,a0,-1076 # 80008aa8 <ticks>
    80001ee4:	411c                	lw	a5,0(a0)
    80001ee6:	2785                	addw	a5,a5,1
    80001ee8:	c11c                	sw	a5,0(a0)
  wakeup(&ticks);
    80001eea:	00000097          	auipc	ra,0x0
    80001eee:	914080e7          	jalr	-1772(ra) # 800017fe <wakeup>
  release(&tickslock);
    80001ef2:	8526                	mv	a0,s1
    80001ef4:	00004097          	auipc	ra,0x4
    80001ef8:	7d8080e7          	jalr	2008(ra) # 800066cc <release>
}
    80001efc:	60e2                	ld	ra,24(sp)
    80001efe:	6442                	ld	s0,16(sp)
    80001f00:	64a2                	ld	s1,8(sp)
    80001f02:	6105                	add	sp,sp,32
    80001f04:	8082                	ret

0000000080001f06 <devintr>:
  asm volatile("csrr %0, scause" : "=r" (x) );
    80001f06:	142027f3          	csrr	a5,scause
    // the SSIP bit in sip.
    w_sip(r_sip() & ~2);

    return 2;
  } else {
    return 0;
    80001f0a:	4501                	li	a0,0
  if((scause & 0x8000000000000000L) &&
    80001f0c:	0807df63          	bgez	a5,80001faa <devintr+0xa4>
{
    80001f10:	1101                	add	sp,sp,-32
    80001f12:	ec06                	sd	ra,24(sp)
    80001f14:	e822                	sd	s0,16(sp)
    80001f16:	e426                	sd	s1,8(sp)
    80001f18:	1000                	add	s0,sp,32
     (scause & 0xff) == 9){
    80001f1a:	0ff7f713          	zext.b	a4,a5
  if((scause & 0x8000000000000000L) &&
    80001f1e:	46a5                	li	a3,9
    80001f20:	00d70d63          	beq	a4,a3,80001f3a <devintr+0x34>
  } else if(scause == 0x8000000000000001L){
    80001f24:	577d                	li	a4,-1
    80001f26:	177e                	sll	a4,a4,0x3f
    80001f28:	0705                	add	a4,a4,1
    return 0;
    80001f2a:	4501                	li	a0,0
  } else if(scause == 0x8000000000000001L){
    80001f2c:	04e78e63          	beq	a5,a4,80001f88 <devintr+0x82>
  }
}
    80001f30:	60e2                	ld	ra,24(sp)
    80001f32:	6442                	ld	s0,16(sp)
    80001f34:	64a2                	ld	s1,8(sp)
    80001f36:	6105                	add	sp,sp,32
    80001f38:	8082                	ret
    int irq = plic_claim();
    80001f3a:	00003097          	auipc	ra,0x3
    80001f3e:	62e080e7          	jalr	1582(ra) # 80005568 <plic_claim>
    80001f42:	84aa                	mv	s1,a0
    if(irq == UART0_IRQ){
    80001f44:	47a9                	li	a5,10
    80001f46:	02f50763          	beq	a0,a5,80001f74 <devintr+0x6e>
    } else if(irq == VIRTIO0_IRQ){
    80001f4a:	4785                	li	a5,1
    80001f4c:	02f50963          	beq	a0,a5,80001f7e <devintr+0x78>
    return 1;
    80001f50:	4505                	li	a0,1
    } else if(irq){
    80001f52:	dcf9                	beqz	s1,80001f30 <devintr+0x2a>
      printf("unexpected interrupt irq=%d\n", irq);
    80001f54:	85a6                	mv	a1,s1
    80001f56:	00006517          	auipc	a0,0x6
    80001f5a:	36250513          	add	a0,a0,866 # 800082b8 <states.0+0x38>
    80001f5e:	00004097          	auipc	ra,0x4
    80001f62:	1cc080e7          	jalr	460(ra) # 8000612a <printf>
      plic_complete(irq);
    80001f66:	8526                	mv	a0,s1
    80001f68:	00003097          	auipc	ra,0x3
    80001f6c:	624080e7          	jalr	1572(ra) # 8000558c <plic_complete>
    return 1;
    80001f70:	4505                	li	a0,1
    80001f72:	bf7d                	j	80001f30 <devintr+0x2a>
      uartintr();
    80001f74:	00004097          	auipc	ra,0x4
    80001f78:	5c4080e7          	jalr	1476(ra) # 80006538 <uartintr>
    if(irq)
    80001f7c:	b7ed                	j	80001f66 <devintr+0x60>
      virtio_disk_intr();
    80001f7e:	00004097          	auipc	ra,0x4
    80001f82:	ad4080e7          	jalr	-1324(ra) # 80005a52 <virtio_disk_intr>
    if(irq)
    80001f86:	b7c5                	j	80001f66 <devintr+0x60>
    if(cpuid() == 0){
    80001f88:	fffff097          	auipc	ra,0xfffff
    80001f8c:	016080e7          	jalr	22(ra) # 80000f9e <cpuid>
    80001f90:	c901                	beqz	a0,80001fa0 <devintr+0x9a>
  asm volatile("csrr %0, sip" : "=r" (x) );
    80001f92:	144027f3          	csrr	a5,sip
    w_sip(r_sip() & ~2);
    80001f96:	9bf5                	and	a5,a5,-3
  asm volatile("csrw sip, %0" : : "r" (x));
    80001f98:	14479073          	csrw	sip,a5
    return 2;
    80001f9c:	4509                	li	a0,2
    80001f9e:	bf49                	j	80001f30 <devintr+0x2a>
      clockintr();
    80001fa0:	00000097          	auipc	ra,0x0
    80001fa4:	f20080e7          	jalr	-224(ra) # 80001ec0 <clockintr>
    80001fa8:	b7ed                	j	80001f92 <devintr+0x8c>
}
    80001faa:	8082                	ret

0000000080001fac <usertrap>:
{
    80001fac:	1101                	add	sp,sp,-32
    80001fae:	ec06                	sd	ra,24(sp)
    80001fb0:	e822                	sd	s0,16(sp)
    80001fb2:	e426                	sd	s1,8(sp)
    80001fb4:	e04a                	sd	s2,0(sp)
    80001fb6:	1000                	add	s0,sp,32
  asm volatile("csrr %0, sstatus" : "=r" (x) );
    80001fb8:	100027f3          	csrr	a5,sstatus
  if((r_sstatus() & SSTATUS_SPP) != 0)
    80001fbc:	1007f793          	and	a5,a5,256
    80001fc0:	e3b1                	bnez	a5,80002004 <usertrap+0x58>
  asm volatile("csrw stvec, %0" : : "r" (x));
    80001fc2:	00003797          	auipc	a5,0x3
    80001fc6:	49e78793          	add	a5,a5,1182 # 80005460 <kernelvec>
    80001fca:	10579073          	csrw	stvec,a5
  struct proc *p = myproc();
    80001fce:	fffff097          	auipc	ra,0xfffff
    80001fd2:	ffc080e7          	jalr	-4(ra) # 80000fca <myproc>
    80001fd6:	84aa                	mv	s1,a0
  p->trapframe->epc = r_sepc();
    80001fd8:	713c                	ld	a5,96(a0)
  asm volatile("csrr %0, sepc" : "=r" (x) );
    80001fda:	14102773          	csrr	a4,sepc
    80001fde:	ef98                	sd	a4,24(a5)
  asm volatile("csrr %0, scause" : "=r" (x) );
    80001fe0:	14202773          	csrr	a4,scause
  if(r_scause() == 8){
    80001fe4:	47a1                	li	a5,8
    80001fe6:	02f70763          	beq	a4,a5,80002014 <usertrap+0x68>
  } else if((which_dev = devintr()) != 0){
    80001fea:	00000097          	auipc	ra,0x0
    80001fee:	f1c080e7          	jalr	-228(ra) # 80001f06 <devintr>
    80001ff2:	892a                	mv	s2,a0
    80001ff4:	c151                	beqz	a0,80002078 <usertrap+0xcc>
  if(killed(p))
    80001ff6:	8526                	mv	a0,s1
    80001ff8:	00000097          	auipc	ra,0x0
    80001ffc:	a4a080e7          	jalr	-1462(ra) # 80001a42 <killed>
    80002000:	c929                	beqz	a0,80002052 <usertrap+0xa6>
    80002002:	a099                	j	80002048 <usertrap+0x9c>
    panic("usertrap: not from user mode");
    80002004:	00006517          	auipc	a0,0x6
    80002008:	2d450513          	add	a0,a0,724 # 800082d8 <states.0+0x58>
    8000200c:	00004097          	auipc	ra,0x4
    80002010:	0d4080e7          	jalr	212(ra) # 800060e0 <panic>
    if(killed(p))
    80002014:	00000097          	auipc	ra,0x0
    80002018:	a2e080e7          	jalr	-1490(ra) # 80001a42 <killed>
    8000201c:	e921                	bnez	a0,8000206c <usertrap+0xc0>
    p->trapframe->epc += 4;
    8000201e:	70b8                	ld	a4,96(s1)
    80002020:	6f1c                	ld	a5,24(a4)
    80002022:	0791                	add	a5,a5,4
    80002024:	ef1c                	sd	a5,24(a4)
  asm volatile("csrr %0, sstatus" : "=r" (x) );
    80002026:	100027f3          	csrr	a5,sstatus
  w_sstatus(r_sstatus() | SSTATUS_SIE);
    8000202a:	0027e793          	or	a5,a5,2
  asm volatile("csrw sstatus, %0" : : "r" (x));
    8000202e:	10079073          	csrw	sstatus,a5
    syscall();
    80002032:	00000097          	auipc	ra,0x0
    80002036:	2d4080e7          	jalr	724(ra) # 80002306 <syscall>
  if(killed(p))
    8000203a:	8526                	mv	a0,s1
    8000203c:	00000097          	auipc	ra,0x0
    80002040:	a06080e7          	jalr	-1530(ra) # 80001a42 <killed>
    80002044:	c911                	beqz	a0,80002058 <usertrap+0xac>
    80002046:	4901                	li	s2,0
    exit(-1);
    80002048:	557d                	li	a0,-1
    8000204a:	00000097          	auipc	ra,0x0
    8000204e:	884080e7          	jalr	-1916(ra) # 800018ce <exit>
  if(which_dev == 2)
    80002052:	4789                	li	a5,2
    80002054:	04f90f63          	beq	s2,a5,800020b2 <usertrap+0x106>
  usertrapret();
    80002058:	00000097          	auipc	ra,0x0
    8000205c:	dd2080e7          	jalr	-558(ra) # 80001e2a <usertrapret>
}
    80002060:	60e2                	ld	ra,24(sp)
    80002062:	6442                	ld	s0,16(sp)
    80002064:	64a2                	ld	s1,8(sp)
    80002066:	6902                	ld	s2,0(sp)
    80002068:	6105                	add	sp,sp,32
    8000206a:	8082                	ret
      exit(-1);
    8000206c:	557d                	li	a0,-1
    8000206e:	00000097          	auipc	ra,0x0
    80002072:	860080e7          	jalr	-1952(ra) # 800018ce <exit>
    80002076:	b765                	j	8000201e <usertrap+0x72>
  asm volatile("csrr %0, scause" : "=r" (x) );
    80002078:	142025f3          	csrr	a1,scause
    printf("usertrap(): unexpected scause %p pid=%d\n", r_scause(), p->pid);
    8000207c:	5890                	lw	a2,48(s1)
    8000207e:	00006517          	auipc	a0,0x6
    80002082:	27a50513          	add	a0,a0,634 # 800082f8 <states.0+0x78>
    80002086:	00004097          	auipc	ra,0x4
    8000208a:	0a4080e7          	jalr	164(ra) # 8000612a <printf>
  asm volatile("csrr %0, sepc" : "=r" (x) );
    8000208e:	141025f3          	csrr	a1,sepc
  asm volatile("csrr %0, stval" : "=r" (x) );
    80002092:	14302673          	csrr	a2,stval
    printf("            sepc=%p stval=%p\n", r_sepc(), r_stval());
    80002096:	00006517          	auipc	a0,0x6
    8000209a:	29250513          	add	a0,a0,658 # 80008328 <states.0+0xa8>
    8000209e:	00004097          	auipc	ra,0x4
    800020a2:	08c080e7          	jalr	140(ra) # 8000612a <printf>
    setkilled(p);
    800020a6:	8526                	mv	a0,s1
    800020a8:	00000097          	auipc	ra,0x0
    800020ac:	96e080e7          	jalr	-1682(ra) # 80001a16 <setkilled>
    800020b0:	b769                	j	8000203a <usertrap+0x8e>
    yield();
    800020b2:	fffff097          	auipc	ra,0xfffff
    800020b6:	6ac080e7          	jalr	1708(ra) # 8000175e <yield>
    800020ba:	bf79                	j	80002058 <usertrap+0xac>

00000000800020bc <kerneltrap>:
{
    800020bc:	7179                	add	sp,sp,-48
    800020be:	f406                	sd	ra,40(sp)
    800020c0:	f022                	sd	s0,32(sp)
    800020c2:	ec26                	sd	s1,24(sp)
    800020c4:	e84a                	sd	s2,16(sp)
    800020c6:	e44e                	sd	s3,8(sp)
    800020c8:	1800                	add	s0,sp,48
  asm volatile("csrr %0, sepc" : "=r" (x) );
    800020ca:	14102973          	csrr	s2,sepc
  asm volatile("csrr %0, sstatus" : "=r" (x) );
    800020ce:	100024f3          	csrr	s1,sstatus
  asm volatile("csrr %0, scause" : "=r" (x) );
    800020d2:	142029f3          	csrr	s3,scause
  if((sstatus & SSTATUS_SPP) == 0)
    800020d6:	1004f793          	and	a5,s1,256
    800020da:	cb85                	beqz	a5,8000210a <kerneltrap+0x4e>
  asm volatile("csrr %0, sstatus" : "=r" (x) );
    800020dc:	100027f3          	csrr	a5,sstatus
  return (x & SSTATUS_SIE) != 0;
    800020e0:	8b89                	and	a5,a5,2
  if(intr_get() != 0)
    800020e2:	ef85                	bnez	a5,8000211a <kerneltrap+0x5e>
  if((which_dev = devintr()) == 0){
    800020e4:	00000097          	auipc	ra,0x0
    800020e8:	e22080e7          	jalr	-478(ra) # 80001f06 <devintr>
    800020ec:	cd1d                	beqz	a0,8000212a <kerneltrap+0x6e>
  if(which_dev == 2 && myproc() != 0 && myproc()->state == RUNNING)
    800020ee:	4789                	li	a5,2
    800020f0:	06f50a63          	beq	a0,a5,80002164 <kerneltrap+0xa8>
  asm volatile("csrw sepc, %0" : : "r" (x));
    800020f4:	14191073          	csrw	sepc,s2
  asm volatile("csrw sstatus, %0" : : "r" (x));
    800020f8:	10049073          	csrw	sstatus,s1
}
    800020fc:	70a2                	ld	ra,40(sp)
    800020fe:	7402                	ld	s0,32(sp)
    80002100:	64e2                	ld	s1,24(sp)
    80002102:	6942                	ld	s2,16(sp)
    80002104:	69a2                	ld	s3,8(sp)
    80002106:	6145                	add	sp,sp,48
    80002108:	8082                	ret
    panic("kerneltrap: not from supervisor mode");
    8000210a:	00006517          	auipc	a0,0x6
    8000210e:	23e50513          	add	a0,a0,574 # 80008348 <states.0+0xc8>
    80002112:	00004097          	auipc	ra,0x4
    80002116:	fce080e7          	jalr	-50(ra) # 800060e0 <panic>
    panic("kerneltrap: interrupts enabled");
    8000211a:	00006517          	auipc	a0,0x6
    8000211e:	25650513          	add	a0,a0,598 # 80008370 <states.0+0xf0>
    80002122:	00004097          	auipc	ra,0x4
    80002126:	fbe080e7          	jalr	-66(ra) # 800060e0 <panic>
    printf("scause %p\n", scause);
    8000212a:	85ce                	mv	a1,s3
    8000212c:	00006517          	auipc	a0,0x6
    80002130:	26450513          	add	a0,a0,612 # 80008390 <states.0+0x110>
    80002134:	00004097          	auipc	ra,0x4
    80002138:	ff6080e7          	jalr	-10(ra) # 8000612a <printf>
  asm volatile("csrr %0, sepc" : "=r" (x) );
    8000213c:	141025f3          	csrr	a1,sepc
  asm volatile("csrr %0, stval" : "=r" (x) );
    80002140:	14302673          	csrr	a2,stval
    printf("sepc=%p stval=%p\n", r_sepc(), r_stval());
    80002144:	00006517          	auipc	a0,0x6
    80002148:	25c50513          	add	a0,a0,604 # 800083a0 <states.0+0x120>
    8000214c:	00004097          	auipc	ra,0x4
    80002150:	fde080e7          	jalr	-34(ra) # 8000612a <printf>
    panic("kerneltrap");
    80002154:	00006517          	auipc	a0,0x6
    80002158:	26450513          	add	a0,a0,612 # 800083b8 <states.0+0x138>
    8000215c:	00004097          	auipc	ra,0x4
    80002160:	f84080e7          	jalr	-124(ra) # 800060e0 <panic>
  if(which_dev == 2 && myproc() != 0 && myproc()->state == RUNNING)
    80002164:	fffff097          	auipc	ra,0xfffff
    80002168:	e66080e7          	jalr	-410(ra) # 80000fca <myproc>
    8000216c:	d541                	beqz	a0,800020f4 <kerneltrap+0x38>
    8000216e:	fffff097          	auipc	ra,0xfffff
    80002172:	e5c080e7          	jalr	-420(ra) # 80000fca <myproc>
    80002176:	4d18                	lw	a4,24(a0)
    80002178:	4791                	li	a5,4
    8000217a:	f6f71de3          	bne	a4,a5,800020f4 <kerneltrap+0x38>
    yield();
    8000217e:	fffff097          	auipc	ra,0xfffff
    80002182:	5e0080e7          	jalr	1504(ra) # 8000175e <yield>
    80002186:	b7bd                	j	800020f4 <kerneltrap+0x38>

0000000080002188 <argraw>:
  return strlen(buf);
}

static uint64
argraw(int n)
{
    80002188:	1101                	add	sp,sp,-32
    8000218a:	ec06                	sd	ra,24(sp)
    8000218c:	e822                	sd	s0,16(sp)
    8000218e:	e426                	sd	s1,8(sp)
    80002190:	1000                	add	s0,sp,32
    80002192:	84aa                	mv	s1,a0
  struct proc *p = myproc();
    80002194:	fffff097          	auipc	ra,0xfffff
    80002198:	e36080e7          	jalr	-458(ra) # 80000fca <myproc>
  switch (n) {
    8000219c:	4795                	li	a5,5
    8000219e:	0497e163          	bltu	a5,s1,800021e0 <argraw+0x58>
    800021a2:	048a                	sll	s1,s1,0x2
    800021a4:	00006717          	auipc	a4,0x6
    800021a8:	33470713          	add	a4,a4,820 # 800084d8 <states.0+0x258>
    800021ac:	94ba                	add	s1,s1,a4
    800021ae:	409c                	lw	a5,0(s1)
    800021b0:	97ba                	add	a5,a5,a4
    800021b2:	8782                	jr	a5
  case 0:
    return p->trapframe->a0;
    800021b4:	713c                	ld	a5,96(a0)
    800021b6:	7ba8                	ld	a0,112(a5)
  case 5:
    return p->trapframe->a5;
  }
  panic("argraw");
  return -1;
}
    800021b8:	60e2                	ld	ra,24(sp)
    800021ba:	6442                	ld	s0,16(sp)
    800021bc:	64a2                	ld	s1,8(sp)
    800021be:	6105                	add	sp,sp,32
    800021c0:	8082                	ret
    return p->trapframe->a1;
    800021c2:	713c                	ld	a5,96(a0)
    800021c4:	7fa8                	ld	a0,120(a5)
    800021c6:	bfcd                	j	800021b8 <argraw+0x30>
    return p->trapframe->a2;
    800021c8:	713c                	ld	a5,96(a0)
    800021ca:	63c8                	ld	a0,128(a5)
    800021cc:	b7f5                	j	800021b8 <argraw+0x30>
    return p->trapframe->a3;
    800021ce:	713c                	ld	a5,96(a0)
    800021d0:	67c8                	ld	a0,136(a5)
    800021d2:	b7dd                	j	800021b8 <argraw+0x30>
    return p->trapframe->a4;
    800021d4:	713c                	ld	a5,96(a0)
    800021d6:	6bc8                	ld	a0,144(a5)
    800021d8:	b7c5                	j	800021b8 <argraw+0x30>
    return p->trapframe->a5;
    800021da:	713c                	ld	a5,96(a0)
    800021dc:	6fc8                	ld	a0,152(a5)
    800021de:	bfe9                	j	800021b8 <argraw+0x30>
  panic("argraw");
    800021e0:	00006517          	auipc	a0,0x6
    800021e4:	1e850513          	add	a0,a0,488 # 800083c8 <states.0+0x148>
    800021e8:	00004097          	auipc	ra,0x4
    800021ec:	ef8080e7          	jalr	-264(ra) # 800060e0 <panic>

00000000800021f0 <fetchaddr>:
{
    800021f0:	1101                	add	sp,sp,-32
    800021f2:	ec06                	sd	ra,24(sp)
    800021f4:	e822                	sd	s0,16(sp)
    800021f6:	e426                	sd	s1,8(sp)
    800021f8:	e04a                	sd	s2,0(sp)
    800021fa:	1000                	add	s0,sp,32
    800021fc:	84aa                	mv	s1,a0
    800021fe:	892e                	mv	s2,a1
  struct proc *p = myproc();
    80002200:	fffff097          	auipc	ra,0xfffff
    80002204:	dca080e7          	jalr	-566(ra) # 80000fca <myproc>
  if(addr >= p->sz || addr+sizeof(uint64) > p->sz) // both tests needed, in case of overflow
    80002208:	653c                	ld	a5,72(a0)
    8000220a:	02f4f863          	bgeu	s1,a5,8000223a <fetchaddr+0x4a>
    8000220e:	00848713          	add	a4,s1,8
    80002212:	02e7e663          	bltu	a5,a4,8000223e <fetchaddr+0x4e>
  if(copyin(p->pagetable, (char *)ip, addr, sizeof(*ip)) != 0)
    80002216:	46a1                	li	a3,8
    80002218:	8626                	mv	a2,s1
    8000221a:	85ca                	mv	a1,s2
    8000221c:	6928                	ld	a0,80(a0)
    8000221e:	fffff097          	auipc	ra,0xfffff
    80002222:	9ca080e7          	jalr	-1590(ra) # 80000be8 <copyin>
    80002226:	00a03533          	snez	a0,a0
    8000222a:	40a00533          	neg	a0,a0
}
    8000222e:	60e2                	ld	ra,24(sp)
    80002230:	6442                	ld	s0,16(sp)
    80002232:	64a2                	ld	s1,8(sp)
    80002234:	6902                	ld	s2,0(sp)
    80002236:	6105                	add	sp,sp,32
    80002238:	8082                	ret
    return -1;
    8000223a:	557d                	li	a0,-1
    8000223c:	bfcd                	j	8000222e <fetchaddr+0x3e>
    8000223e:	557d                	li	a0,-1
    80002240:	b7fd                	j	8000222e <fetchaddr+0x3e>

0000000080002242 <fetchstr>:
{
    80002242:	7179                	add	sp,sp,-48
    80002244:	f406                	sd	ra,40(sp)
    80002246:	f022                	sd	s0,32(sp)
    80002248:	ec26                	sd	s1,24(sp)
    8000224a:	e84a                	sd	s2,16(sp)
    8000224c:	e44e                	sd	s3,8(sp)
    8000224e:	1800                	add	s0,sp,48
    80002250:	892a                	mv	s2,a0
    80002252:	84ae                	mv	s1,a1
    80002254:	89b2                	mv	s3,a2
  struct proc *p = myproc();
    80002256:	fffff097          	auipc	ra,0xfffff
    8000225a:	d74080e7          	jalr	-652(ra) # 80000fca <myproc>
  if(copyinstr(p->pagetable, buf, addr, max) < 0)
    8000225e:	86ce                	mv	a3,s3
    80002260:	864a                	mv	a2,s2
    80002262:	85a6                	mv	a1,s1
    80002264:	6928                	ld	a0,80(a0)
    80002266:	fffff097          	auipc	ra,0xfffff
    8000226a:	a10080e7          	jalr	-1520(ra) # 80000c76 <copyinstr>
    8000226e:	00054e63          	bltz	a0,8000228a <fetchstr+0x48>
  return strlen(buf);
    80002272:	8526                	mv	a0,s1
    80002274:	ffffe097          	auipc	ra,0xffffe
    80002278:	0ca080e7          	jalr	202(ra) # 8000033e <strlen>
}
    8000227c:	70a2                	ld	ra,40(sp)
    8000227e:	7402                	ld	s0,32(sp)
    80002280:	64e2                	ld	s1,24(sp)
    80002282:	6942                	ld	s2,16(sp)
    80002284:	69a2                	ld	s3,8(sp)
    80002286:	6145                	add	sp,sp,48
    80002288:	8082                	ret
    return -1;
    8000228a:	557d                	li	a0,-1
    8000228c:	bfc5                	j	8000227c <fetchstr+0x3a>

000000008000228e <argint>:

// Fetch the nth 32-bit system call argument.
void
argint(int n, int *ip)
{
    8000228e:	1101                	add	sp,sp,-32
    80002290:	ec06                	sd	ra,24(sp)
    80002292:	e822                	sd	s0,16(sp)
    80002294:	e426                	sd	s1,8(sp)
    80002296:	1000                	add	s0,sp,32
    80002298:	84ae                	mv	s1,a1
  *ip = argraw(n);
    8000229a:	00000097          	auipc	ra,0x0
    8000229e:	eee080e7          	jalr	-274(ra) # 80002188 <argraw>
    800022a2:	c088                	sw	a0,0(s1)
}
    800022a4:	60e2                	ld	ra,24(sp)
    800022a6:	6442                	ld	s0,16(sp)
    800022a8:	64a2                	ld	s1,8(sp)
    800022aa:	6105                	add	sp,sp,32
    800022ac:	8082                	ret

00000000800022ae <argaddr>:
// Retrieve an argument as a pointer.
// Doesn't check for legality, since
// copyin/copyout will do that.
void
argaddr(int n, uint64 *ip)
{
    800022ae:	1101                	add	sp,sp,-32
    800022b0:	ec06                	sd	ra,24(sp)
    800022b2:	e822                	sd	s0,16(sp)
    800022b4:	e426                	sd	s1,8(sp)
    800022b6:	1000                	add	s0,sp,32
    800022b8:	84ae                	mv	s1,a1
  *ip = argraw(n);
    800022ba:	00000097          	auipc	ra,0x0
    800022be:	ece080e7          	jalr	-306(ra) # 80002188 <argraw>
    800022c2:	e088                	sd	a0,0(s1)
}
    800022c4:	60e2                	ld	ra,24(sp)
    800022c6:	6442                	ld	s0,16(sp)
    800022c8:	64a2                	ld	s1,8(sp)
    800022ca:	6105                	add	sp,sp,32
    800022cc:	8082                	ret

00000000800022ce <argstr>:
// Fetch the nth word-sized system call argument as a null-terminated string.
// Copies into buf, at most max.
// Returns string length if OK (including nul), -1 if error.
int
argstr(int n, char *buf, int max)
{
    800022ce:	7179                	add	sp,sp,-48
    800022d0:	f406                	sd	ra,40(sp)
    800022d2:	f022                	sd	s0,32(sp)
    800022d4:	ec26                	sd	s1,24(sp)
    800022d6:	e84a                	sd	s2,16(sp)
    800022d8:	1800                	add	s0,sp,48
    800022da:	84ae                	mv	s1,a1
    800022dc:	8932                	mv	s2,a2
  uint64 addr;
  argaddr(n, &addr);
    800022de:	fd840593          	add	a1,s0,-40
    800022e2:	00000097          	auipc	ra,0x0
    800022e6:	fcc080e7          	jalr	-52(ra) # 800022ae <argaddr>
  return fetchstr(addr, buf, max);
    800022ea:	864a                	mv	a2,s2
    800022ec:	85a6                	mv	a1,s1
    800022ee:	fd843503          	ld	a0,-40(s0)
    800022f2:	00000097          	auipc	ra,0x0
    800022f6:	f50080e7          	jalr	-176(ra) # 80002242 <fetchstr>
}
    800022fa:	70a2                	ld	ra,40(sp)
    800022fc:	7402                	ld	s0,32(sp)
    800022fe:	64e2                	ld	s1,24(sp)
    80002300:	6942                	ld	s2,16(sp)
    80002302:	6145                	add	sp,sp,48
    80002304:	8082                	ret

0000000080002306 <syscall>:
  "setpriority",
};

void
syscall(void)
{
    80002306:	7179                	add	sp,sp,-48
    80002308:	f406                	sd	ra,40(sp)
    8000230a:	f022                	sd	s0,32(sp)
    8000230c:	ec26                	sd	s1,24(sp)
    8000230e:	e84a                	sd	s2,16(sp)
    80002310:	e44e                	sd	s3,8(sp)
    80002312:	1800                	add	s0,sp,48
  int num;
  struct proc *p = myproc();
    80002314:	fffff097          	auipc	ra,0xfffff
    80002318:	cb6080e7          	jalr	-842(ra) # 80000fca <myproc>
    8000231c:	84aa                	mv	s1,a0

  num = p->trapframe->a7;
    8000231e:	06053903          	ld	s2,96(a0)
    80002322:	0a893783          	ld	a5,168(s2)
    80002326:	0007899b          	sext.w	s3,a5
  if(num > 0 && num < NELEM(syscalls) && syscalls[num]) {
    8000232a:	37fd                	addw	a5,a5,-1
    8000232c:	4761                	li	a4,24
    8000232e:	04f76763          	bltu	a4,a5,8000237c <syscall+0x76>
    80002332:	00399713          	sll	a4,s3,0x3
    80002336:	00006797          	auipc	a5,0x6
    8000233a:	1ba78793          	add	a5,a5,442 # 800084f0 <syscalls>
    8000233e:	97ba                	add	a5,a5,a4
    80002340:	639c                	ld	a5,0(a5)
    80002342:	cf8d                	beqz	a5,8000237c <syscall+0x76>
    // Use num to lookup the system call function for num, call it,
    // and store its return value in p->trapframe->a0
    p->trapframe->a0 = syscalls[num]();
    80002344:	9782                	jalr	a5
    80002346:	06a93823          	sd	a0,112(s2)
    if (p->tracemask & (1 << num))
    8000234a:	1704a783          	lw	a5,368(s1)
    8000234e:	4137d7bb          	sraw	a5,a5,s3
    80002352:	8b85                	and	a5,a5,1
    80002354:	c3b9                	beqz	a5,8000239a <syscall+0x94>
      printf("%d: syscall %s -> %d\n", p->pid, syscallnames[num], (int)p->trapframe->a0);
    80002356:	70b8                	ld	a4,96(s1)
    80002358:	098e                	sll	s3,s3,0x3
    8000235a:	00006797          	auipc	a5,0x6
    8000235e:	19678793          	add	a5,a5,406 # 800084f0 <syscalls>
    80002362:	97ce                	add	a5,a5,s3
    80002364:	5b34                	lw	a3,112(a4)
    80002366:	6bf0                	ld	a2,208(a5)
    80002368:	588c                	lw	a1,48(s1)
    8000236a:	00006517          	auipc	a0,0x6
    8000236e:	06650513          	add	a0,a0,102 # 800083d0 <states.0+0x150>
    80002372:	00004097          	auipc	ra,0x4
    80002376:	db8080e7          	jalr	-584(ra) # 8000612a <printf>
    8000237a:	a005                	j	8000239a <syscall+0x94>
  } else {
    printf("%d %s: unknown sys call %d\n",
    8000237c:	86ce                	mv	a3,s3
    8000237e:	16048613          	add	a2,s1,352
    80002382:	588c                	lw	a1,48(s1)
    80002384:	00006517          	auipc	a0,0x6
    80002388:	06450513          	add	a0,a0,100 # 800083e8 <states.0+0x168>
    8000238c:	00004097          	auipc	ra,0x4
    80002390:	d9e080e7          	jalr	-610(ra) # 8000612a <printf>
            p->pid, p->name, num);
    p->trapframe->a0 = -1;
    80002394:	70bc                	ld	a5,96(s1)
    80002396:	577d                	li	a4,-1
    80002398:	fbb8                	sd	a4,112(a5)
  }
}
    8000239a:	70a2                	ld	ra,40(sp)
    8000239c:	7402                	ld	s0,32(sp)
    8000239e:	64e2                	ld	s1,24(sp)
    800023a0:	6942                	ld	s2,16(sp)
    800023a2:	69a2                	ld	s3,8(sp)
    800023a4:	6145                	add	sp,sp,48
    800023a6:	8082                	ret

00000000800023a8 <sys_exit>:
#include "sysinfo.h"
#include "proc.h"

uint64
sys_exit(void)
{
    800023a8:	1101                	add	sp,sp,-32
    800023aa:	ec06                	sd	ra,24(sp)
    800023ac:	e822                	sd	s0,16(sp)
    800023ae:	1000                	add	s0,sp,32
  int n;
  argint(0, &n);
    800023b0:	fec40593          	add	a1,s0,-20
    800023b4:	4501                	li	a0,0
    800023b6:	00000097          	auipc	ra,0x0
    800023ba:	ed8080e7          	jalr	-296(ra) # 8000228e <argint>
  exit(n);
    800023be:	fec42503          	lw	a0,-20(s0)
    800023c2:	fffff097          	auipc	ra,0xfffff
    800023c6:	50c080e7          	jalr	1292(ra) # 800018ce <exit>
  return 0;  // not reached
}
    800023ca:	4501                	li	a0,0
    800023cc:	60e2                	ld	ra,24(sp)
    800023ce:	6442                	ld	s0,16(sp)
    800023d0:	6105                	add	sp,sp,32
    800023d2:	8082                	ret

00000000800023d4 <sys_getpid>:

uint64
sys_getpid(void)
{
    800023d4:	1141                	add	sp,sp,-16
    800023d6:	e406                	sd	ra,8(sp)
    800023d8:	e022                	sd	s0,0(sp)
    800023da:	0800                	add	s0,sp,16
  return myproc()->pid;
    800023dc:	fffff097          	auipc	ra,0xfffff
    800023e0:	bee080e7          	jalr	-1042(ra) # 80000fca <myproc>
}
    800023e4:	5908                	lw	a0,48(a0)
    800023e6:	60a2                	ld	ra,8(sp)
    800023e8:	6402                	ld	s0,0(sp)
    800023ea:	0141                	add	sp,sp,16
    800023ec:	8082                	ret

00000000800023ee <sys_fork>:

uint64
sys_fork(void)
{
    800023ee:	1141                	add	sp,sp,-16
    800023f0:	e406                	sd	ra,8(sp)
    800023f2:	e022                	sd	s0,0(sp)
    800023f4:	0800                	add	s0,sp,16
  return fork();
    800023f6:	fffff097          	auipc	ra,0xfffff
    800023fa:	038080e7          	jalr	56(ra) # 8000142e <fork>
}
    800023fe:	60a2                	ld	ra,8(sp)
    80002400:	6402                	ld	s0,0(sp)
    80002402:	0141                	add	sp,sp,16
    80002404:	8082                	ret

0000000080002406 <sys_wait>:

uint64
sys_wait(void)
{
    80002406:	1101                	add	sp,sp,-32
    80002408:	ec06                	sd	ra,24(sp)
    8000240a:	e822                	sd	s0,16(sp)
    8000240c:	1000                	add	s0,sp,32
  uint64 p;
  argaddr(0, &p);
    8000240e:	fe840593          	add	a1,s0,-24
    80002412:	4501                	li	a0,0
    80002414:	00000097          	auipc	ra,0x0
    80002418:	e9a080e7          	jalr	-358(ra) # 800022ae <argaddr>
  return wait(p);
    8000241c:	fe843503          	ld	a0,-24(s0)
    80002420:	fffff097          	auipc	ra,0xfffff
    80002424:	654080e7          	jalr	1620(ra) # 80001a74 <wait>
}
    80002428:	60e2                	ld	ra,24(sp)
    8000242a:	6442                	ld	s0,16(sp)
    8000242c:	6105                	add	sp,sp,32
    8000242e:	8082                	ret

0000000080002430 <sys_sbrk>:

uint64
sys_sbrk(void)
{
    80002430:	7179                	add	sp,sp,-48
    80002432:	f406                	sd	ra,40(sp)
    80002434:	f022                	sd	s0,32(sp)
    80002436:	ec26                	sd	s1,24(sp)
    80002438:	1800                	add	s0,sp,48
  uint64 addr;
  int n;

  argint(0, &n);
    8000243a:	fdc40593          	add	a1,s0,-36
    8000243e:	4501                	li	a0,0
    80002440:	00000097          	auipc	ra,0x0
    80002444:	e4e080e7          	jalr	-434(ra) # 8000228e <argint>
  addr = myproc()->sz;
    80002448:	fffff097          	auipc	ra,0xfffff
    8000244c:	b82080e7          	jalr	-1150(ra) # 80000fca <myproc>
    80002450:	6524                	ld	s1,72(a0)
  if(growproc(n) < 0)
    80002452:	fdc42503          	lw	a0,-36(s0)
    80002456:	fffff097          	auipc	ra,0xfffff
    8000245a:	f7c080e7          	jalr	-132(ra) # 800013d2 <growproc>
    8000245e:	00054863          	bltz	a0,8000246e <sys_sbrk+0x3e>
    return -1;
  return addr;
}
    80002462:	8526                	mv	a0,s1
    80002464:	70a2                	ld	ra,40(sp)
    80002466:	7402                	ld	s0,32(sp)
    80002468:	64e2                	ld	s1,24(sp)
    8000246a:	6145                	add	sp,sp,48
    8000246c:	8082                	ret
    return -1;
    8000246e:	54fd                	li	s1,-1
    80002470:	bfcd                	j	80002462 <sys_sbrk+0x32>

0000000080002472 <sys_sleep>:

uint64
sys_sleep(void)
{
    80002472:	7139                	add	sp,sp,-64
    80002474:	fc06                	sd	ra,56(sp)
    80002476:	f822                	sd	s0,48(sp)
    80002478:	f426                	sd	s1,40(sp)
    8000247a:	f04a                	sd	s2,32(sp)
    8000247c:	ec4e                	sd	s3,24(sp)
    8000247e:	0080                	add	s0,sp,64
  int n;
  uint ticks0;

  argint(0, &n);
    80002480:	fcc40593          	add	a1,s0,-52
    80002484:	4501                	li	a0,0
    80002486:	00000097          	auipc	ra,0x0
    8000248a:	e08080e7          	jalr	-504(ra) # 8000228e <argint>
  if(n < 0)
    8000248e:	fcc42783          	lw	a5,-52(s0)
    80002492:	0607cf63          	bltz	a5,80002510 <sys_sleep+0x9e>
    n = 0;
  acquire(&tickslock);
    80002496:	0000d517          	auipc	a0,0xd
    8000249a:	8a250513          	add	a0,a0,-1886 # 8000ed38 <tickslock>
    8000249e:	00004097          	auipc	ra,0x4
    800024a2:	17a080e7          	jalr	378(ra) # 80006618 <acquire>
  ticks0 = ticks;
    800024a6:	00006917          	auipc	s2,0x6
    800024aa:	60292903          	lw	s2,1538(s2) # 80008aa8 <ticks>
  while(ticks - ticks0 < n){
    800024ae:	fcc42783          	lw	a5,-52(s0)
    800024b2:	cf9d                	beqz	a5,800024f0 <sys_sleep+0x7e>
    if(killed(myproc())){
      release(&tickslock);
      return -1;
    }
    sleep(&ticks, &tickslock);
    800024b4:	0000d997          	auipc	s3,0xd
    800024b8:	88498993          	add	s3,s3,-1916 # 8000ed38 <tickslock>
    800024bc:	00006497          	auipc	s1,0x6
    800024c0:	5ec48493          	add	s1,s1,1516 # 80008aa8 <ticks>
    if(killed(myproc())){
    800024c4:	fffff097          	auipc	ra,0xfffff
    800024c8:	b06080e7          	jalr	-1274(ra) # 80000fca <myproc>
    800024cc:	fffff097          	auipc	ra,0xfffff
    800024d0:	576080e7          	jalr	1398(ra) # 80001a42 <killed>
    800024d4:	e129                	bnez	a0,80002516 <sys_sleep+0xa4>
    sleep(&ticks, &tickslock);
    800024d6:	85ce                	mv	a1,s3
    800024d8:	8526                	mv	a0,s1
    800024da:	fffff097          	auipc	ra,0xfffff
    800024de:	2c0080e7          	jalr	704(ra) # 8000179a <sleep>
  while(ticks - ticks0 < n){
    800024e2:	409c                	lw	a5,0(s1)
    800024e4:	412787bb          	subw	a5,a5,s2
    800024e8:	fcc42703          	lw	a4,-52(s0)
    800024ec:	fce7ece3          	bltu	a5,a4,800024c4 <sys_sleep+0x52>
  }
  release(&tickslock);
    800024f0:	0000d517          	auipc	a0,0xd
    800024f4:	84850513          	add	a0,a0,-1976 # 8000ed38 <tickslock>
    800024f8:	00004097          	auipc	ra,0x4
    800024fc:	1d4080e7          	jalr	468(ra) # 800066cc <release>
  return 0;
    80002500:	4501                	li	a0,0
}
    80002502:	70e2                	ld	ra,56(sp)
    80002504:	7442                	ld	s0,48(sp)
    80002506:	74a2                	ld	s1,40(sp)
    80002508:	7902                	ld	s2,32(sp)
    8000250a:	69e2                	ld	s3,24(sp)
    8000250c:	6121                	add	sp,sp,64
    8000250e:	8082                	ret
    n = 0;
    80002510:	fc042623          	sw	zero,-52(s0)
    80002514:	b749                	j	80002496 <sys_sleep+0x24>
      release(&tickslock);
    80002516:	0000d517          	auipc	a0,0xd
    8000251a:	82250513          	add	a0,a0,-2014 # 8000ed38 <tickslock>
    8000251e:	00004097          	auipc	ra,0x4
    80002522:	1ae080e7          	jalr	430(ra) # 800066cc <release>
      return -1;
    80002526:	557d                	li	a0,-1
    80002528:	bfe9                	j	80002502 <sys_sleep+0x90>

000000008000252a <sys_pgaccess>:

int
sys_pgaccess(void)
{
    8000252a:	715d                	add	sp,sp,-80
    8000252c:	e486                	sd	ra,72(sp)
    8000252e:	e0a2                	sd	s0,64(sp)
    80002530:	fc26                	sd	s1,56(sp)
    80002532:	f84a                	sd	s2,48(sp)
    80002534:	f44e                	sd	s3,40(sp)
    80002536:	0880                	add	s0,sp,80
  struct proc *p = myproc();
    80002538:	fffff097          	auipc	ra,0xfffff
    8000253c:	a92080e7          	jalr	-1390(ra) # 80000fca <myproc>
    80002540:	892a                	mv	s2,a0
  uint64 va, res, bitmask = 0;
    80002542:	fa043c23          	sd	zero,-72(s0)
  int n;

  argaddr(0, &va);
    80002546:	fc840593          	add	a1,s0,-56
    8000254a:	4501                	li	a0,0
    8000254c:	00000097          	auipc	ra,0x0
    80002550:	d62080e7          	jalr	-670(ra) # 800022ae <argaddr>
  argint(1,  &n);
    80002554:	fb440593          	add	a1,s0,-76
    80002558:	4505                	li	a0,1
    8000255a:	00000097          	auipc	ra,0x0
    8000255e:	d34080e7          	jalr	-716(ra) # 8000228e <argint>
  argaddr(2, &res);
    80002562:	fc040593          	add	a1,s0,-64
    80002566:	4509                	li	a0,2
    80002568:	00000097          	auipc	ra,0x0
    8000256c:	d46080e7          	jalr	-698(ra) # 800022ae <argaddr>
  va = PGROUNDDOWN(va);
    80002570:	77fd                	lui	a5,0xfffff
    80002572:	fc843703          	ld	a4,-56(s0)
    80002576:	8ff9                	and	a5,a5,a4
    80002578:	fcf43423          	sd	a5,-56(s0)
  if((n > 64) || (va + (n * PGSIZE) >= MAXVA))
    8000257c:	fb442703          	lw	a4,-76(s0)
    80002580:	04000693          	li	a3,64
    80002584:	08e6c663          	blt	a3,a4,80002610 <sys_pgaccess+0xe6>
    80002588:	00c7169b          	sllw	a3,a4,0xc
    8000258c:	96be                	add	a3,a3,a5
    8000258e:	57fd                	li	a5,-1
    80002590:	83e9                	srl	a5,a5,0x1a
    80002592:	08d7e163          	bltu	a5,a3,80002614 <sys_pgaccess+0xea>
    return -1;
  
  for (int i = 0; i < n; ++i) {
    80002596:	04e05963          	blez	a4,800025e8 <sys_pgaccess+0xbe>
    8000259a:	4481                	li	s1,0
    pte_t *pte = walk(p->pagetable, va + (i * PGSIZE), 0);
    if(pte){
      if(*pte & PTE_A)
        bitmask |= (1L << i);
    8000259c:	4985                	li	s3,1
    8000259e:	a821                	j	800025b6 <sys_pgaccess+0x8c>
      *pte &= ~PTE_A;
    800025a0:	611c                	ld	a5,0(a0)
    800025a2:	fbf7f793          	and	a5,a5,-65
    800025a6:	e11c                	sd	a5,0(a0)
  for (int i = 0; i < n; ++i) {
    800025a8:	0485                	add	s1,s1,1
    800025aa:	fb442703          	lw	a4,-76(s0)
    800025ae:	0004879b          	sext.w	a5,s1
    800025b2:	02e7db63          	bge	a5,a4,800025e8 <sys_pgaccess+0xbe>
    pte_t *pte = walk(p->pagetable, va + (i * PGSIZE), 0);
    800025b6:	00c49593          	sll	a1,s1,0xc
    800025ba:	4601                	li	a2,0
    800025bc:	fc843783          	ld	a5,-56(s0)
    800025c0:	95be                	add	a1,a1,a5
    800025c2:	05093503          	ld	a0,80(s2)
    800025c6:	ffffe097          	auipc	ra,0xffffe
    800025ca:	ee0080e7          	jalr	-288(ra) # 800004a6 <walk>
    if(pte){
    800025ce:	dd69                	beqz	a0,800025a8 <sys_pgaccess+0x7e>
      if(*pte & PTE_A)
    800025d0:	611c                	ld	a5,0(a0)
    800025d2:	0407f793          	and	a5,a5,64
    800025d6:	d7e9                	beqz	a5,800025a0 <sys_pgaccess+0x76>
        bitmask |= (1L << i);
    800025d8:	00999733          	sll	a4,s3,s1
    800025dc:	fb843783          	ld	a5,-72(s0)
    800025e0:	8fd9                	or	a5,a5,a4
    800025e2:	faf43c23          	sd	a5,-72(s0)
    800025e6:	bf6d                	j	800025a0 <sys_pgaccess+0x76>
    }
  }

  if(copyout(p->pagetable, res, (char*)&bitmask, sizeof(bitmask)) < 0)
    800025e8:	46a1                	li	a3,8
    800025ea:	fb840613          	add	a2,s0,-72
    800025ee:	fc043583          	ld	a1,-64(s0)
    800025f2:	05093503          	ld	a0,80(s2)
    800025f6:	ffffe097          	auipc	ra,0xffffe
    800025fa:	566080e7          	jalr	1382(ra) # 80000b5c <copyout>
    800025fe:	41f5551b          	sraw	a0,a0,0x1f
    return -1;
  return 0;
}
    80002602:	60a6                	ld	ra,72(sp)
    80002604:	6406                	ld	s0,64(sp)
    80002606:	74e2                	ld	s1,56(sp)
    80002608:	7942                	ld	s2,48(sp)
    8000260a:	79a2                	ld	s3,40(sp)
    8000260c:	6161                	add	sp,sp,80
    8000260e:	8082                	ret
    return -1;
    80002610:	557d                	li	a0,-1
    80002612:	bfc5                	j	80002602 <sys_pgaccess+0xd8>
    80002614:	557d                	li	a0,-1
    80002616:	b7f5                	j	80002602 <sys_pgaccess+0xd8>

0000000080002618 <sys_kill>:

uint64
sys_kill(void)
{
    80002618:	1101                	add	sp,sp,-32
    8000261a:	ec06                	sd	ra,24(sp)
    8000261c:	e822                	sd	s0,16(sp)
    8000261e:	1000                	add	s0,sp,32
  int pid;

  argint(0, &pid);
    80002620:	fec40593          	add	a1,s0,-20
    80002624:	4501                	li	a0,0
    80002626:	00000097          	auipc	ra,0x0
    8000262a:	c68080e7          	jalr	-920(ra) # 8000228e <argint>
  return kill(pid);
    8000262e:	fec42503          	lw	a0,-20(s0)
    80002632:	fffff097          	auipc	ra,0xfffff
    80002636:	372080e7          	jalr	882(ra) # 800019a4 <kill>
}
    8000263a:	60e2                	ld	ra,24(sp)
    8000263c:	6442                	ld	s0,16(sp)
    8000263e:	6105                	add	sp,sp,32
    80002640:	8082                	ret

0000000080002642 <sys_uptime>:

// return how many clock tick interrupts have occurred
// since start.
uint64
sys_uptime(void)
{
    80002642:	1101                	add	sp,sp,-32
    80002644:	ec06                	sd	ra,24(sp)
    80002646:	e822                	sd	s0,16(sp)
    80002648:	e426                	sd	s1,8(sp)
    8000264a:	1000                	add	s0,sp,32
  uint xticks;

  acquire(&tickslock);
    8000264c:	0000c517          	auipc	a0,0xc
    80002650:	6ec50513          	add	a0,a0,1772 # 8000ed38 <tickslock>
    80002654:	00004097          	auipc	ra,0x4
    80002658:	fc4080e7          	jalr	-60(ra) # 80006618 <acquire>
  xticks = ticks;
    8000265c:	00006497          	auipc	s1,0x6
    80002660:	44c4a483          	lw	s1,1100(s1) # 80008aa8 <ticks>
  release(&tickslock);
    80002664:	0000c517          	auipc	a0,0xc
    80002668:	6d450513          	add	a0,a0,1748 # 8000ed38 <tickslock>
    8000266c:	00004097          	auipc	ra,0x4
    80002670:	060080e7          	jalr	96(ra) # 800066cc <release>
  return xticks;
}
    80002674:	02049513          	sll	a0,s1,0x20
    80002678:	9101                	srl	a0,a0,0x20
    8000267a:	60e2                	ld	ra,24(sp)
    8000267c:	6442                	ld	s0,16(sp)
    8000267e:	64a2                	ld	s1,8(sp)
    80002680:	6105                	add	sp,sp,32
    80002682:	8082                	ret

0000000080002684 <sys_trace>:

uint64
sys_trace(void)
{
    80002684:	1101                	add	sp,sp,-32
    80002686:	ec06                	sd	ra,24(sp)
    80002688:	e822                	sd	s0,16(sp)
    8000268a:	1000                	add	s0,sp,32
  int mask;

  argint(0, &mask);
    8000268c:	fec40593          	add	a1,s0,-20
    80002690:	4501                	li	a0,0
    80002692:	00000097          	auipc	ra,0x0
    80002696:	bfc080e7          	jalr	-1028(ra) # 8000228e <argint>
  myproc()->tracemask = mask;
    8000269a:	fffff097          	auipc	ra,0xfffff
    8000269e:	930080e7          	jalr	-1744(ra) # 80000fca <myproc>
    800026a2:	fec42783          	lw	a5,-20(s0)
    800026a6:	16f52823          	sw	a5,368(a0)
  return 0;
}
    800026aa:	4501                	li	a0,0
    800026ac:	60e2                	ld	ra,24(sp)
    800026ae:	6442                	ld	s0,16(sp)
    800026b0:	6105                	add	sp,sp,32
    800026b2:	8082                	ret

00000000800026b4 <sys_sysinfo>:

uint64
sys_sysinfo(void)
{
    800026b4:	7139                	add	sp,sp,-64
    800026b6:	fc06                	sd	ra,56(sp)
    800026b8:	f822                	sd	s0,48(sp)
    800026ba:	f426                	sd	s1,40(sp)
    800026bc:	0080                	add	s0,sp,64
  struct proc *p = myproc();
    800026be:	fffff097          	auipc	ra,0xfffff
    800026c2:	90c080e7          	jalr	-1780(ra) # 80000fca <myproc>
    800026c6:	84aa                	mv	s1,a0
  uint64 infoaddr; // user pointer to struct sysinfo
  struct sysinfo info = { .freemem = kfreesize(), .nproc = procsinuse() };
    800026c8:	ffffe097          	auipc	ra,0xffffe
    800026cc:	a52080e7          	jalr	-1454(ra) # 8000011a <kfreesize>
    800026d0:	fca43423          	sd	a0,-56(s0)
    800026d4:	fffff097          	auipc	ra,0xfffff
    800026d8:	62a080e7          	jalr	1578(ra) # 80001cfe <procsinuse>
    800026dc:	fca43823          	sd	a0,-48(s0)

  argaddr(0, &infoaddr);
    800026e0:	fd840593          	add	a1,s0,-40
    800026e4:	4501                	li	a0,0
    800026e6:	00000097          	auipc	ra,0x0
    800026ea:	bc8080e7          	jalr	-1080(ra) # 800022ae <argaddr>
  if(copyout(p->pagetable, infoaddr, (char*)&info, sizeof(info)) < 0)
    800026ee:	46c1                	li	a3,16
    800026f0:	fc840613          	add	a2,s0,-56
    800026f4:	fd843583          	ld	a1,-40(s0)
    800026f8:	68a8                	ld	a0,80(s1)
    800026fa:	ffffe097          	auipc	ra,0xffffe
    800026fe:	462080e7          	jalr	1122(ra) # 80000b5c <copyout>
    return -1;
  return 0;
}
    80002702:	957d                	sra	a0,a0,0x3f
    80002704:	70e2                	ld	ra,56(sp)
    80002706:	7442                	ld	s0,48(sp)
    80002708:	74a2                	ld	s1,40(sp)
    8000270a:	6121                	add	sp,sp,64
    8000270c:	8082                	ret

000000008000270e <sys_setpriority>:

uint64
sys_setpriority(void)
{
    8000270e:	1101                	add	sp,sp,-32
    80002710:	ec06                	sd	ra,24(sp)
    80002712:	e822                	sd	s0,16(sp)
    80002714:	1000                	add	s0,sp,32
  int priority;
  argint(0, &priority);
    80002716:	fec40593          	add	a1,s0,-20
    8000271a:	4501                	li	a0,0
    8000271c:	00000097          	auipc	ra,0x0
    80002720:	b72080e7          	jalr	-1166(ra) # 8000228e <argint>
  return setpriority(priority);
    80002724:	fec42503          	lw	a0,-20(s0)
    80002728:	fffff097          	auipc	ra,0xfffff
    8000272c:	604080e7          	jalr	1540(ra) # 80001d2c <setpriority>
}
    80002730:	60e2                	ld	ra,24(sp)
    80002732:	6442                	ld	s0,16(sp)
    80002734:	6105                	add	sp,sp,32
    80002736:	8082                	ret

0000000080002738 <binit>:
  struct buf head;
} bcache;

void
binit(void)
{
    80002738:	7179                	add	sp,sp,-48
    8000273a:	f406                	sd	ra,40(sp)
    8000273c:	f022                	sd	s0,32(sp)
    8000273e:	ec26                	sd	s1,24(sp)
    80002740:	e84a                	sd	s2,16(sp)
    80002742:	e44e                	sd	s3,8(sp)
    80002744:	e052                	sd	s4,0(sp)
    80002746:	1800                	add	s0,sp,48
  struct buf *b;

  initlock(&bcache.lock, "bcache");
    80002748:	00006597          	auipc	a1,0x6
    8000274c:	f4858593          	add	a1,a1,-184 # 80008690 <syscallnames+0xd0>
    80002750:	0000c517          	auipc	a0,0xc
    80002754:	60050513          	add	a0,a0,1536 # 8000ed50 <bcache>
    80002758:	00004097          	auipc	ra,0x4
    8000275c:	e30080e7          	jalr	-464(ra) # 80006588 <initlock>

  // Create linked list of buffers
  bcache.head.prev = &bcache.head;
    80002760:	00014797          	auipc	a5,0x14
    80002764:	5f078793          	add	a5,a5,1520 # 80016d50 <bcache+0x8000>
    80002768:	00015717          	auipc	a4,0x15
    8000276c:	85070713          	add	a4,a4,-1968 # 80016fb8 <bcache+0x8268>
    80002770:	2ae7b823          	sd	a4,688(a5)
  bcache.head.next = &bcache.head;
    80002774:	2ae7bc23          	sd	a4,696(a5)
  for(b = bcache.buf; b < bcache.buf+NBUF; b++){
    80002778:	0000c497          	auipc	s1,0xc
    8000277c:	5f048493          	add	s1,s1,1520 # 8000ed68 <bcache+0x18>
    b->next = bcache.head.next;
    80002780:	893e                	mv	s2,a5
    b->prev = &bcache.head;
    80002782:	89ba                	mv	s3,a4
    initsleeplock(&b->lock, "buffer");
    80002784:	00006a17          	auipc	s4,0x6
    80002788:	f14a0a13          	add	s4,s4,-236 # 80008698 <syscallnames+0xd8>
    b->next = bcache.head.next;
    8000278c:	2b893783          	ld	a5,696(s2)
    80002790:	e8bc                	sd	a5,80(s1)
    b->prev = &bcache.head;
    80002792:	0534b423          	sd	s3,72(s1)
    initsleeplock(&b->lock, "buffer");
    80002796:	85d2                	mv	a1,s4
    80002798:	01048513          	add	a0,s1,16
    8000279c:	00001097          	auipc	ra,0x1
    800027a0:	496080e7          	jalr	1174(ra) # 80003c32 <initsleeplock>
    bcache.head.next->prev = b;
    800027a4:	2b893783          	ld	a5,696(s2)
    800027a8:	e7a4                	sd	s1,72(a5)
    bcache.head.next = b;
    800027aa:	2a993c23          	sd	s1,696(s2)
  for(b = bcache.buf; b < bcache.buf+NBUF; b++){
    800027ae:	45848493          	add	s1,s1,1112
    800027b2:	fd349de3          	bne	s1,s3,8000278c <binit+0x54>
  }
}
    800027b6:	70a2                	ld	ra,40(sp)
    800027b8:	7402                	ld	s0,32(sp)
    800027ba:	64e2                	ld	s1,24(sp)
    800027bc:	6942                	ld	s2,16(sp)
    800027be:	69a2                	ld	s3,8(sp)
    800027c0:	6a02                	ld	s4,0(sp)
    800027c2:	6145                	add	sp,sp,48
    800027c4:	8082                	ret

00000000800027c6 <bread>:
}

// Return a locked buf with the contents of the indicated block.
struct buf*
bread(uint dev, uint blockno)
{
    800027c6:	7179                	add	sp,sp,-48
    800027c8:	f406                	sd	ra,40(sp)
    800027ca:	f022                	sd	s0,32(sp)
    800027cc:	ec26                	sd	s1,24(sp)
    800027ce:	e84a                	sd	s2,16(sp)
    800027d0:	e44e                	sd	s3,8(sp)
    800027d2:	1800                	add	s0,sp,48
    800027d4:	892a                	mv	s2,a0
    800027d6:	89ae                	mv	s3,a1
  acquire(&bcache.lock);
    800027d8:	0000c517          	auipc	a0,0xc
    800027dc:	57850513          	add	a0,a0,1400 # 8000ed50 <bcache>
    800027e0:	00004097          	auipc	ra,0x4
    800027e4:	e38080e7          	jalr	-456(ra) # 80006618 <acquire>
  for(b = bcache.head.next; b != &bcache.head; b = b->next){
    800027e8:	00015497          	auipc	s1,0x15
    800027ec:	8204b483          	ld	s1,-2016(s1) # 80017008 <bcache+0x82b8>
    800027f0:	00014797          	auipc	a5,0x14
    800027f4:	7c878793          	add	a5,a5,1992 # 80016fb8 <bcache+0x8268>
    800027f8:	02f48f63          	beq	s1,a5,80002836 <bread+0x70>
    800027fc:	873e                	mv	a4,a5
    800027fe:	a021                	j	80002806 <bread+0x40>
    80002800:	68a4                	ld	s1,80(s1)
    80002802:	02e48a63          	beq	s1,a4,80002836 <bread+0x70>
    if(b->dev == dev && b->blockno == blockno){
    80002806:	449c                	lw	a5,8(s1)
    80002808:	ff279ce3          	bne	a5,s2,80002800 <bread+0x3a>
    8000280c:	44dc                	lw	a5,12(s1)
    8000280e:	ff3799e3          	bne	a5,s3,80002800 <bread+0x3a>
      b->refcnt++;
    80002812:	40bc                	lw	a5,64(s1)
    80002814:	2785                	addw	a5,a5,1
    80002816:	c0bc                	sw	a5,64(s1)
      release(&bcache.lock);
    80002818:	0000c517          	auipc	a0,0xc
    8000281c:	53850513          	add	a0,a0,1336 # 8000ed50 <bcache>
    80002820:	00004097          	auipc	ra,0x4
    80002824:	eac080e7          	jalr	-340(ra) # 800066cc <release>
      acquiresleep(&b->lock);
    80002828:	01048513          	add	a0,s1,16
    8000282c:	00001097          	auipc	ra,0x1
    80002830:	440080e7          	jalr	1088(ra) # 80003c6c <acquiresleep>
      return b;
    80002834:	a8b9                	j	80002892 <bread+0xcc>
  for(b = bcache.head.prev; b != &bcache.head; b = b->prev){
    80002836:	00014497          	auipc	s1,0x14
    8000283a:	7ca4b483          	ld	s1,1994(s1) # 80017000 <bcache+0x82b0>
    8000283e:	00014797          	auipc	a5,0x14
    80002842:	77a78793          	add	a5,a5,1914 # 80016fb8 <bcache+0x8268>
    80002846:	00f48863          	beq	s1,a5,80002856 <bread+0x90>
    8000284a:	873e                	mv	a4,a5
    if(b->refcnt == 0) {
    8000284c:	40bc                	lw	a5,64(s1)
    8000284e:	cf81                	beqz	a5,80002866 <bread+0xa0>
  for(b = bcache.head.prev; b != &bcache.head; b = b->prev){
    80002850:	64a4                	ld	s1,72(s1)
    80002852:	fee49de3          	bne	s1,a4,8000284c <bread+0x86>
  panic("bget: no buffers");
    80002856:	00006517          	auipc	a0,0x6
    8000285a:	e4a50513          	add	a0,a0,-438 # 800086a0 <syscallnames+0xe0>
    8000285e:	00004097          	auipc	ra,0x4
    80002862:	882080e7          	jalr	-1918(ra) # 800060e0 <panic>
      b->dev = dev;
    80002866:	0124a423          	sw	s2,8(s1)
      b->blockno = blockno;
    8000286a:	0134a623          	sw	s3,12(s1)
      b->valid = 0;
    8000286e:	0004a023          	sw	zero,0(s1)
      b->refcnt = 1;
    80002872:	4785                	li	a5,1
    80002874:	c0bc                	sw	a5,64(s1)
      release(&bcache.lock);
    80002876:	0000c517          	auipc	a0,0xc
    8000287a:	4da50513          	add	a0,a0,1242 # 8000ed50 <bcache>
    8000287e:	00004097          	auipc	ra,0x4
    80002882:	e4e080e7          	jalr	-434(ra) # 800066cc <release>
      acquiresleep(&b->lock);
    80002886:	01048513          	add	a0,s1,16
    8000288a:	00001097          	auipc	ra,0x1
    8000288e:	3e2080e7          	jalr	994(ra) # 80003c6c <acquiresleep>
  struct buf *b;

  b = bget(dev, blockno);
  if(!b->valid) {
    80002892:	409c                	lw	a5,0(s1)
    80002894:	cb89                	beqz	a5,800028a6 <bread+0xe0>
    virtio_disk_rw(b, 0);
    b->valid = 1;
  }
  return b;
}
    80002896:	8526                	mv	a0,s1
    80002898:	70a2                	ld	ra,40(sp)
    8000289a:	7402                	ld	s0,32(sp)
    8000289c:	64e2                	ld	s1,24(sp)
    8000289e:	6942                	ld	s2,16(sp)
    800028a0:	69a2                	ld	s3,8(sp)
    800028a2:	6145                	add	sp,sp,48
    800028a4:	8082                	ret
    virtio_disk_rw(b, 0);
    800028a6:	4581                	li	a1,0
    800028a8:	8526                	mv	a0,s1
    800028aa:	00003097          	auipc	ra,0x3
    800028ae:	f78080e7          	jalr	-136(ra) # 80005822 <virtio_disk_rw>
    b->valid = 1;
    800028b2:	4785                	li	a5,1
    800028b4:	c09c                	sw	a5,0(s1)
  return b;
    800028b6:	b7c5                	j	80002896 <bread+0xd0>

00000000800028b8 <bwrite>:

// Write b's contents to disk.  Must be locked.
void
bwrite(struct buf *b)
{
    800028b8:	1101                	add	sp,sp,-32
    800028ba:	ec06                	sd	ra,24(sp)
    800028bc:	e822                	sd	s0,16(sp)
    800028be:	e426                	sd	s1,8(sp)
    800028c0:	1000                	add	s0,sp,32
    800028c2:	84aa                	mv	s1,a0
  if(!holdingsleep(&b->lock))
    800028c4:	0541                	add	a0,a0,16
    800028c6:	00001097          	auipc	ra,0x1
    800028ca:	440080e7          	jalr	1088(ra) # 80003d06 <holdingsleep>
    800028ce:	cd01                	beqz	a0,800028e6 <bwrite+0x2e>
    panic("bwrite");
  virtio_disk_rw(b, 1);
    800028d0:	4585                	li	a1,1
    800028d2:	8526                	mv	a0,s1
    800028d4:	00003097          	auipc	ra,0x3
    800028d8:	f4e080e7          	jalr	-178(ra) # 80005822 <virtio_disk_rw>
}
    800028dc:	60e2                	ld	ra,24(sp)
    800028de:	6442                	ld	s0,16(sp)
    800028e0:	64a2                	ld	s1,8(sp)
    800028e2:	6105                	add	sp,sp,32
    800028e4:	8082                	ret
    panic("bwrite");
    800028e6:	00006517          	auipc	a0,0x6
    800028ea:	dd250513          	add	a0,a0,-558 # 800086b8 <syscallnames+0xf8>
    800028ee:	00003097          	auipc	ra,0x3
    800028f2:	7f2080e7          	jalr	2034(ra) # 800060e0 <panic>

00000000800028f6 <brelse>:

// Release a locked buffer.
// Move to the head of the most-recently-used list.
void
brelse(struct buf *b)
{
    800028f6:	1101                	add	sp,sp,-32
    800028f8:	ec06                	sd	ra,24(sp)
    800028fa:	e822                	sd	s0,16(sp)
    800028fc:	e426                	sd	s1,8(sp)
    800028fe:	e04a                	sd	s2,0(sp)
    80002900:	1000                	add	s0,sp,32
    80002902:	84aa                	mv	s1,a0
  if(!holdingsleep(&b->lock))
    80002904:	01050913          	add	s2,a0,16
    80002908:	854a                	mv	a0,s2
    8000290a:	00001097          	auipc	ra,0x1
    8000290e:	3fc080e7          	jalr	1020(ra) # 80003d06 <holdingsleep>
    80002912:	c925                	beqz	a0,80002982 <brelse+0x8c>
    panic("brelse");

  releasesleep(&b->lock);
    80002914:	854a                	mv	a0,s2
    80002916:	00001097          	auipc	ra,0x1
    8000291a:	3ac080e7          	jalr	940(ra) # 80003cc2 <releasesleep>

  acquire(&bcache.lock);
    8000291e:	0000c517          	auipc	a0,0xc
    80002922:	43250513          	add	a0,a0,1074 # 8000ed50 <bcache>
    80002926:	00004097          	auipc	ra,0x4
    8000292a:	cf2080e7          	jalr	-782(ra) # 80006618 <acquire>
  b->refcnt--;
    8000292e:	40bc                	lw	a5,64(s1)
    80002930:	37fd                	addw	a5,a5,-1
    80002932:	0007871b          	sext.w	a4,a5
    80002936:	c0bc                	sw	a5,64(s1)
  if (b->refcnt == 0) {
    80002938:	e71d                	bnez	a4,80002966 <brelse+0x70>
    // no one is waiting for it.
    b->next->prev = b->prev;
    8000293a:	68b8                	ld	a4,80(s1)
    8000293c:	64bc                	ld	a5,72(s1)
    8000293e:	e73c                	sd	a5,72(a4)
    b->prev->next = b->next;
    80002940:	68b8                	ld	a4,80(s1)
    80002942:	ebb8                	sd	a4,80(a5)
    b->next = bcache.head.next;
    80002944:	00014797          	auipc	a5,0x14
    80002948:	40c78793          	add	a5,a5,1036 # 80016d50 <bcache+0x8000>
    8000294c:	2b87b703          	ld	a4,696(a5)
    80002950:	e8b8                	sd	a4,80(s1)
    b->prev = &bcache.head;
    80002952:	00014717          	auipc	a4,0x14
    80002956:	66670713          	add	a4,a4,1638 # 80016fb8 <bcache+0x8268>
    8000295a:	e4b8                	sd	a4,72(s1)
    bcache.head.next->prev = b;
    8000295c:	2b87b703          	ld	a4,696(a5)
    80002960:	e724                	sd	s1,72(a4)
    bcache.head.next = b;
    80002962:	2a97bc23          	sd	s1,696(a5)
  }
  
  release(&bcache.lock);
    80002966:	0000c517          	auipc	a0,0xc
    8000296a:	3ea50513          	add	a0,a0,1002 # 8000ed50 <bcache>
    8000296e:	00004097          	auipc	ra,0x4
    80002972:	d5e080e7          	jalr	-674(ra) # 800066cc <release>
}
    80002976:	60e2                	ld	ra,24(sp)
    80002978:	6442                	ld	s0,16(sp)
    8000297a:	64a2                	ld	s1,8(sp)
    8000297c:	6902                	ld	s2,0(sp)
    8000297e:	6105                	add	sp,sp,32
    80002980:	8082                	ret
    panic("brelse");
    80002982:	00006517          	auipc	a0,0x6
    80002986:	d3e50513          	add	a0,a0,-706 # 800086c0 <syscallnames+0x100>
    8000298a:	00003097          	auipc	ra,0x3
    8000298e:	756080e7          	jalr	1878(ra) # 800060e0 <panic>

0000000080002992 <bpin>:

void
bpin(struct buf *b) {
    80002992:	1101                	add	sp,sp,-32
    80002994:	ec06                	sd	ra,24(sp)
    80002996:	e822                	sd	s0,16(sp)
    80002998:	e426                	sd	s1,8(sp)
    8000299a:	1000                	add	s0,sp,32
    8000299c:	84aa                	mv	s1,a0
  acquire(&bcache.lock);
    8000299e:	0000c517          	auipc	a0,0xc
    800029a2:	3b250513          	add	a0,a0,946 # 8000ed50 <bcache>
    800029a6:	00004097          	auipc	ra,0x4
    800029aa:	c72080e7          	jalr	-910(ra) # 80006618 <acquire>
  b->refcnt++;
    800029ae:	40bc                	lw	a5,64(s1)
    800029b0:	2785                	addw	a5,a5,1
    800029b2:	c0bc                	sw	a5,64(s1)
  release(&bcache.lock);
    800029b4:	0000c517          	auipc	a0,0xc
    800029b8:	39c50513          	add	a0,a0,924 # 8000ed50 <bcache>
    800029bc:	00004097          	auipc	ra,0x4
    800029c0:	d10080e7          	jalr	-752(ra) # 800066cc <release>
}
    800029c4:	60e2                	ld	ra,24(sp)
    800029c6:	6442                	ld	s0,16(sp)
    800029c8:	64a2                	ld	s1,8(sp)
    800029ca:	6105                	add	sp,sp,32
    800029cc:	8082                	ret

00000000800029ce <bunpin>:

void
bunpin(struct buf *b) {
    800029ce:	1101                	add	sp,sp,-32
    800029d0:	ec06                	sd	ra,24(sp)
    800029d2:	e822                	sd	s0,16(sp)
    800029d4:	e426                	sd	s1,8(sp)
    800029d6:	1000                	add	s0,sp,32
    800029d8:	84aa                	mv	s1,a0
  acquire(&bcache.lock);
    800029da:	0000c517          	auipc	a0,0xc
    800029de:	37650513          	add	a0,a0,886 # 8000ed50 <bcache>
    800029e2:	00004097          	auipc	ra,0x4
    800029e6:	c36080e7          	jalr	-970(ra) # 80006618 <acquire>
  b->refcnt--;
    800029ea:	40bc                	lw	a5,64(s1)
    800029ec:	37fd                	addw	a5,a5,-1
    800029ee:	c0bc                	sw	a5,64(s1)
  release(&bcache.lock);
    800029f0:	0000c517          	auipc	a0,0xc
    800029f4:	36050513          	add	a0,a0,864 # 8000ed50 <bcache>
    800029f8:	00004097          	auipc	ra,0x4
    800029fc:	cd4080e7          	jalr	-812(ra) # 800066cc <release>
}
    80002a00:	60e2                	ld	ra,24(sp)
    80002a02:	6442                	ld	s0,16(sp)
    80002a04:	64a2                	ld	s1,8(sp)
    80002a06:	6105                	add	sp,sp,32
    80002a08:	8082                	ret

0000000080002a0a <bfree>:
}

// Free a disk block.
static void
bfree(int dev, uint b)
{
    80002a0a:	1101                	add	sp,sp,-32
    80002a0c:	ec06                	sd	ra,24(sp)
    80002a0e:	e822                	sd	s0,16(sp)
    80002a10:	e426                	sd	s1,8(sp)
    80002a12:	e04a                	sd	s2,0(sp)
    80002a14:	1000                	add	s0,sp,32
    80002a16:	84ae                	mv	s1,a1
  struct buf *bp;
  int bi, m;

  bp = bread(dev, BBLOCK(b, sb));
    80002a18:	00d5d59b          	srlw	a1,a1,0xd
    80002a1c:	00015797          	auipc	a5,0x15
    80002a20:	a107a783          	lw	a5,-1520(a5) # 8001742c <sb+0x1c>
    80002a24:	9dbd                	addw	a1,a1,a5
    80002a26:	00000097          	auipc	ra,0x0
    80002a2a:	da0080e7          	jalr	-608(ra) # 800027c6 <bread>
  bi = b % BPB;
  m = 1 << (bi % 8);
    80002a2e:	0074f713          	and	a4,s1,7
    80002a32:	4785                	li	a5,1
    80002a34:	00e797bb          	sllw	a5,a5,a4
  if((bp->data[bi/8] & m) == 0)
    80002a38:	14ce                	sll	s1,s1,0x33
    80002a3a:	90d9                	srl	s1,s1,0x36
    80002a3c:	00950733          	add	a4,a0,s1
    80002a40:	05874703          	lbu	a4,88(a4)
    80002a44:	00e7f6b3          	and	a3,a5,a4
    80002a48:	c69d                	beqz	a3,80002a76 <bfree+0x6c>
    80002a4a:	892a                	mv	s2,a0
    panic("freeing free block");
  bp->data[bi/8] &= ~m;
    80002a4c:	94aa                	add	s1,s1,a0
    80002a4e:	fff7c793          	not	a5,a5
    80002a52:	8f7d                	and	a4,a4,a5
    80002a54:	04e48c23          	sb	a4,88(s1)
  log_write(bp);
    80002a58:	00001097          	auipc	ra,0x1
    80002a5c:	0f6080e7          	jalr	246(ra) # 80003b4e <log_write>
  brelse(bp);
    80002a60:	854a                	mv	a0,s2
    80002a62:	00000097          	auipc	ra,0x0
    80002a66:	e94080e7          	jalr	-364(ra) # 800028f6 <brelse>
}
    80002a6a:	60e2                	ld	ra,24(sp)
    80002a6c:	6442                	ld	s0,16(sp)
    80002a6e:	64a2                	ld	s1,8(sp)
    80002a70:	6902                	ld	s2,0(sp)
    80002a72:	6105                	add	sp,sp,32
    80002a74:	8082                	ret
    panic("freeing free block");
    80002a76:	00006517          	auipc	a0,0x6
    80002a7a:	c5250513          	add	a0,a0,-942 # 800086c8 <syscallnames+0x108>
    80002a7e:	00003097          	auipc	ra,0x3
    80002a82:	662080e7          	jalr	1634(ra) # 800060e0 <panic>

0000000080002a86 <balloc>:
{
    80002a86:	711d                	add	sp,sp,-96
    80002a88:	ec86                	sd	ra,88(sp)
    80002a8a:	e8a2                	sd	s0,80(sp)
    80002a8c:	e4a6                	sd	s1,72(sp)
    80002a8e:	e0ca                	sd	s2,64(sp)
    80002a90:	fc4e                	sd	s3,56(sp)
    80002a92:	f852                	sd	s4,48(sp)
    80002a94:	f456                	sd	s5,40(sp)
    80002a96:	f05a                	sd	s6,32(sp)
    80002a98:	ec5e                	sd	s7,24(sp)
    80002a9a:	e862                	sd	s8,16(sp)
    80002a9c:	e466                	sd	s9,8(sp)
    80002a9e:	1080                	add	s0,sp,96
  for(b = 0; b < sb.size; b += BPB){
    80002aa0:	00015797          	auipc	a5,0x15
    80002aa4:	9747a783          	lw	a5,-1676(a5) # 80017414 <sb+0x4>
    80002aa8:	cff5                	beqz	a5,80002ba4 <balloc+0x11e>
    80002aaa:	8baa                	mv	s7,a0
    80002aac:	4a81                	li	s5,0
    bp = bread(dev, BBLOCK(b, sb));
    80002aae:	00015b17          	auipc	s6,0x15
    80002ab2:	962b0b13          	add	s6,s6,-1694 # 80017410 <sb>
    for(bi = 0; bi < BPB && b + bi < sb.size; bi++){
    80002ab6:	4c01                	li	s8,0
      m = 1 << (bi % 8);
    80002ab8:	4985                	li	s3,1
    for(bi = 0; bi < BPB && b + bi < sb.size; bi++){
    80002aba:	6a09                	lui	s4,0x2
  for(b = 0; b < sb.size; b += BPB){
    80002abc:	6c89                	lui	s9,0x2
    80002abe:	a061                	j	80002b46 <balloc+0xc0>
        bp->data[bi/8] |= m;  // Mark block in use.
    80002ac0:	97ca                	add	a5,a5,s2
    80002ac2:	8e55                	or	a2,a2,a3
    80002ac4:	04c78c23          	sb	a2,88(a5)
        log_write(bp);
    80002ac8:	854a                	mv	a0,s2
    80002aca:	00001097          	auipc	ra,0x1
    80002ace:	084080e7          	jalr	132(ra) # 80003b4e <log_write>
        brelse(bp);
    80002ad2:	854a                	mv	a0,s2
    80002ad4:	00000097          	auipc	ra,0x0
    80002ad8:	e22080e7          	jalr	-478(ra) # 800028f6 <brelse>
  bp = bread(dev, bno);
    80002adc:	85a6                	mv	a1,s1
    80002ade:	855e                	mv	a0,s7
    80002ae0:	00000097          	auipc	ra,0x0
    80002ae4:	ce6080e7          	jalr	-794(ra) # 800027c6 <bread>
    80002ae8:	892a                	mv	s2,a0
  memset(bp->data, 0, BSIZE);
    80002aea:	40000613          	li	a2,1024
    80002aee:	4581                	li	a1,0
    80002af0:	05850513          	add	a0,a0,88
    80002af4:	ffffd097          	auipc	ra,0xffffd
    80002af8:	6d0080e7          	jalr	1744(ra) # 800001c4 <memset>
  log_write(bp);
    80002afc:	854a                	mv	a0,s2
    80002afe:	00001097          	auipc	ra,0x1
    80002b02:	050080e7          	jalr	80(ra) # 80003b4e <log_write>
  brelse(bp);
    80002b06:	854a                	mv	a0,s2
    80002b08:	00000097          	auipc	ra,0x0
    80002b0c:	dee080e7          	jalr	-530(ra) # 800028f6 <brelse>
}
    80002b10:	8526                	mv	a0,s1
    80002b12:	60e6                	ld	ra,88(sp)
    80002b14:	6446                	ld	s0,80(sp)
    80002b16:	64a6                	ld	s1,72(sp)
    80002b18:	6906                	ld	s2,64(sp)
    80002b1a:	79e2                	ld	s3,56(sp)
    80002b1c:	7a42                	ld	s4,48(sp)
    80002b1e:	7aa2                	ld	s5,40(sp)
    80002b20:	7b02                	ld	s6,32(sp)
    80002b22:	6be2                	ld	s7,24(sp)
    80002b24:	6c42                	ld	s8,16(sp)
    80002b26:	6ca2                	ld	s9,8(sp)
    80002b28:	6125                	add	sp,sp,96
    80002b2a:	8082                	ret
    brelse(bp);
    80002b2c:	854a                	mv	a0,s2
    80002b2e:	00000097          	auipc	ra,0x0
    80002b32:	dc8080e7          	jalr	-568(ra) # 800028f6 <brelse>
  for(b = 0; b < sb.size; b += BPB){
    80002b36:	015c87bb          	addw	a5,s9,s5
    80002b3a:	00078a9b          	sext.w	s5,a5
    80002b3e:	004b2703          	lw	a4,4(s6)
    80002b42:	06eaf163          	bgeu	s5,a4,80002ba4 <balloc+0x11e>
    bp = bread(dev, BBLOCK(b, sb));
    80002b46:	41fad79b          	sraw	a5,s5,0x1f
    80002b4a:	0137d79b          	srlw	a5,a5,0x13
    80002b4e:	015787bb          	addw	a5,a5,s5
    80002b52:	40d7d79b          	sraw	a5,a5,0xd
    80002b56:	01cb2583          	lw	a1,28(s6)
    80002b5a:	9dbd                	addw	a1,a1,a5
    80002b5c:	855e                	mv	a0,s7
    80002b5e:	00000097          	auipc	ra,0x0
    80002b62:	c68080e7          	jalr	-920(ra) # 800027c6 <bread>
    80002b66:	892a                	mv	s2,a0
    for(bi = 0; bi < BPB && b + bi < sb.size; bi++){
    80002b68:	004b2503          	lw	a0,4(s6)
    80002b6c:	000a849b          	sext.w	s1,s5
    80002b70:	8762                	mv	a4,s8
    80002b72:	faa4fde3          	bgeu	s1,a0,80002b2c <balloc+0xa6>
      m = 1 << (bi % 8);
    80002b76:	00777693          	and	a3,a4,7
    80002b7a:	00d996bb          	sllw	a3,s3,a3
      if((bp->data[bi/8] & m) == 0){  // Is block free?
    80002b7e:	41f7579b          	sraw	a5,a4,0x1f
    80002b82:	01d7d79b          	srlw	a5,a5,0x1d
    80002b86:	9fb9                	addw	a5,a5,a4
    80002b88:	4037d79b          	sraw	a5,a5,0x3
    80002b8c:	00f90633          	add	a2,s2,a5
    80002b90:	05864603          	lbu	a2,88(a2)
    80002b94:	00c6f5b3          	and	a1,a3,a2
    80002b98:	d585                	beqz	a1,80002ac0 <balloc+0x3a>
    for(bi = 0; bi < BPB && b + bi < sb.size; bi++){
    80002b9a:	2705                	addw	a4,a4,1
    80002b9c:	2485                	addw	s1,s1,1
    80002b9e:	fd471ae3          	bne	a4,s4,80002b72 <balloc+0xec>
    80002ba2:	b769                	j	80002b2c <balloc+0xa6>
  printf("balloc: out of blocks\n");
    80002ba4:	00006517          	auipc	a0,0x6
    80002ba8:	b3c50513          	add	a0,a0,-1220 # 800086e0 <syscallnames+0x120>
    80002bac:	00003097          	auipc	ra,0x3
    80002bb0:	57e080e7          	jalr	1406(ra) # 8000612a <printf>
  return 0;
    80002bb4:	4481                	li	s1,0
    80002bb6:	bfa9                	j	80002b10 <balloc+0x8a>

0000000080002bb8 <bmap>:
// Return the disk block address of the nth block in inode ip.
// If there is no such block, bmap allocates one.
// returns 0 if out of disk space.
static uint
bmap(struct inode *ip, uint bn)
{
    80002bb8:	7179                	add	sp,sp,-48
    80002bba:	f406                	sd	ra,40(sp)
    80002bbc:	f022                	sd	s0,32(sp)
    80002bbe:	ec26                	sd	s1,24(sp)
    80002bc0:	e84a                	sd	s2,16(sp)
    80002bc2:	e44e                	sd	s3,8(sp)
    80002bc4:	e052                	sd	s4,0(sp)
    80002bc6:	1800                	add	s0,sp,48
    80002bc8:	89aa                	mv	s3,a0
  uint addr, *a;
  struct buf *bp;

  if(bn < NDIRECT){
    80002bca:	47ad                	li	a5,11
    80002bcc:	02b7e863          	bltu	a5,a1,80002bfc <bmap+0x44>
    if((addr = ip->addrs[bn]) == 0){
    80002bd0:	02059793          	sll	a5,a1,0x20
    80002bd4:	01e7d593          	srl	a1,a5,0x1e
    80002bd8:	00b504b3          	add	s1,a0,a1
    80002bdc:	0504a903          	lw	s2,80(s1)
    80002be0:	06091e63          	bnez	s2,80002c5c <bmap+0xa4>
      addr = balloc(ip->dev);
    80002be4:	4108                	lw	a0,0(a0)
    80002be6:	00000097          	auipc	ra,0x0
    80002bea:	ea0080e7          	jalr	-352(ra) # 80002a86 <balloc>
    80002bee:	0005091b          	sext.w	s2,a0
      if(addr == 0)
    80002bf2:	06090563          	beqz	s2,80002c5c <bmap+0xa4>
        return 0;
      ip->addrs[bn] = addr;
    80002bf6:	0524a823          	sw	s2,80(s1)
    80002bfa:	a08d                	j	80002c5c <bmap+0xa4>
    }
    return addr;
  }
  bn -= NDIRECT;
    80002bfc:	ff45849b          	addw	s1,a1,-12
    80002c00:	0004871b          	sext.w	a4,s1

  if(bn < NINDIRECT){
    80002c04:	0ff00793          	li	a5,255
    80002c08:	08e7e563          	bltu	a5,a4,80002c92 <bmap+0xda>
    // Load indirect block, allocating if necessary.
    if((addr = ip->addrs[NDIRECT]) == 0){
    80002c0c:	08052903          	lw	s2,128(a0)
    80002c10:	00091d63          	bnez	s2,80002c2a <bmap+0x72>
      addr = balloc(ip->dev);
    80002c14:	4108                	lw	a0,0(a0)
